
1stproject.elf:     file format elf32-littlearm

Sections:
Idx Name          Size      VMA       LMA       File off  Algn
  0 .isr_vector   0000010c  08000000  08000000  00010000  2**0
                  CONTENTS, ALLOC, LOAD, READONLY, DATA
  1 .text         00001b44  0800010c  0800010c  0001010c  2**2
                  CONTENTS, ALLOC, LOAD, READONLY, CODE
  2 .rodata       0000007c  08001c50  08001c50  00011c50  2**2
                  CONTENTS, ALLOC, LOAD, READONLY, DATA
  3 .ARM.extab    00000000  08001ccc  08001ccc  00020028  2**0
                  CONTENTS
  4 .ARM          00000000  08001ccc  08001ccc  00020028  2**0
                  CONTENTS
  5 .preinit_array 00000000  08001ccc  08001ccc  00020028  2**0
                  CONTENTS, ALLOC, LOAD, DATA
  6 .init_array   00000004  08001ccc  08001ccc  00011ccc  2**2
                  CONTENTS, ALLOC, LOAD, DATA
  7 .fini_array   00000004  08001cd0  08001cd0  00011cd0  2**2
                  CONTENTS, ALLOC, LOAD, DATA
  8 .data         00000028  20000000  08001cd4  00020000  2**2
                  CONTENTS, ALLOC, LOAD, DATA
  9 .bss          00000020  20000028  08001cfc  00020028  2**2
                  ALLOC
 10 ._user_heap_stack 00000600  20000048  08001cfc  00020048  2**0
                  ALLOC
 11 .ARM.attributes 00000029  00000000  00000000  00020028  2**0
                  CONTENTS, READONLY
 12 .debug_info   00003ca4  00000000  00000000  00020051  2**0
                  CONTENTS, READONLY, DEBUGGING, OCTETS
 13 .debug_abbrev 000012f8  00000000  00000000  00023cf5  2**0
                  CONTENTS, READONLY, DEBUGGING, OCTETS
 14 .debug_aranges 000004e0  00000000  00000000  00024ff0  2**3
                  CONTENTS, READONLY, DEBUGGING, OCTETS
 15 .debug_ranges 00000428  00000000  00000000  000254d0  2**3
                  CONTENTS, READONLY, DEBUGGING, OCTETS
 16 .debug_macro  00017209  00000000  00000000  000258f8  2**0
                  CONTENTS, READONLY, DEBUGGING, OCTETS
 17 .debug_line   0000687f  00000000  00000000  0003cb01  2**0
                  CONTENTS, READONLY, DEBUGGING, OCTETS
 18 .debug_str    00080106  00000000  00000000  00043380  2**0
                  CONTENTS, READONLY, DEBUGGING, OCTETS
 19 .comment      00000050  00000000  00000000  000c3486  2**0
                  CONTENTS, READONLY
 20 .debug_frame  00001178  00000000  00000000  000c34d8  2**2
                  CONTENTS, READONLY, DEBUGGING, OCTETS

Disassembly of section .text:

0800010c <__do_global_dtors_aux>:
 800010c:	b510      	push	{r4, lr}
 800010e:	4c05      	ldr	r4, [pc, #20]	; (8000124 <__do_global_dtors_aux+0x18>)
 8000110:	7823      	ldrb	r3, [r4, #0]
 8000112:	b933      	cbnz	r3, 8000122 <__do_global_dtors_aux+0x16>
 8000114:	4b04      	ldr	r3, [pc, #16]	; (8000128 <__do_global_dtors_aux+0x1c>)
 8000116:	b113      	cbz	r3, 800011e <__do_global_dtors_aux+0x12>
 8000118:	4804      	ldr	r0, [pc, #16]	; (800012c <__do_global_dtors_aux+0x20>)
 800011a:	f3af 8000 	nop.w
 800011e:	2301      	movs	r3, #1
 8000120:	7023      	strb	r3, [r4, #0]
 8000122:	bd10      	pop	{r4, pc}
 8000124:	20000028 	.word	0x20000028
 8000128:	00000000 	.word	0x00000000
 800012c:	08001c38 	.word	0x08001c38

08000130 <frame_dummy>:
 8000130:	b508      	push	{r3, lr}
 8000132:	4b03      	ldr	r3, [pc, #12]	; (8000140 <frame_dummy+0x10>)
 8000134:	b11b      	cbz	r3, 800013e <frame_dummy+0xe>
 8000136:	4903      	ldr	r1, [pc, #12]	; (8000144 <frame_dummy+0x14>)
 8000138:	4803      	ldr	r0, [pc, #12]	; (8000148 <frame_dummy+0x18>)
 800013a:	f3af 8000 	nop.w
 800013e:	bd08      	pop	{r3, pc}
 8000140:	00000000 	.word	0x00000000
 8000144:	2000002c 	.word	0x2000002c
 8000148:	08001c38 	.word	0x08001c38

0800014c <main>:

/**
 * @brief  The application entry point.
 * @retval int
 */
int main(void) {
 800014c:	b580      	push	{r7, lr}
 800014e:	b090      	sub	sp, #64	; 0x40
 8000150:	af02      	add	r7, sp, #8
	/* USER CODE END 1 */

	/* MCU Configuration--------------------------------------------------------*/

	/* Reset of all peripherals, Initializes the Flash interface and the Systick. */
	HAL_Init();
 8000152:	f000 fdfb 	bl	8000d4c <HAL_Init>
	/* USER CODE BEGIN Init */

	/* USER CODE END Init */

	/* Configure the system clock */
	SystemClock_Config();
 8000156:	f000 f98b 	bl	8000470 <SystemClock_Config>
	/* USER CODE BEGIN SysInit */

	/* USER CODE END SysInit */

	/* Initialize all configured peripherals */
	MX_GPIO_Init();
 800015a:	f000 f9cf 	bl	80004fc <MX_GPIO_Init>
	/* USER CODE BEGIN 2 */

	__HAL_RCC_GPIOB_CLK_ENABLE();
 800015e:	4bbc      	ldr	r3, [pc, #752]	; (8000450 <main+0x304>)
 8000160:	699b      	ldr	r3, [r3, #24]
 8000162:	4abb      	ldr	r2, [pc, #748]	; (8000450 <main+0x304>)
 8000164:	f043 0308 	orr.w	r3, r3, #8
 8000168:	6193      	str	r3, [r2, #24]
 800016a:	4bb9      	ldr	r3, [pc, #740]	; (8000450 <main+0x304>)
 800016c:	699b      	ldr	r3, [r3, #24]
 800016e:	f003 0308 	and.w	r3, r3, #8
 8000172:	607b      	str	r3, [r7, #4]
 8000174:	687b      	ldr	r3, [r7, #4]
	__HAL_RCC_GPIOA_CLK_ENABLE();
 8000176:	4bb6      	ldr	r3, [pc, #728]	; (8000450 <main+0x304>)
 8000178:	699b      	ldr	r3, [r3, #24]
 800017a:	4ab5      	ldr	r2, [pc, #724]	; (8000450 <main+0x304>)
 800017c:	f043 0304 	orr.w	r3, r3, #4
 8000180:	6193      	str	r3, [r2, #24]
 8000182:	4bb3      	ldr	r3, [pc, #716]	; (8000450 <main+0x304>)
 8000184:	699b      	ldr	r3, [r3, #24]
 8000186:	f003 0304 	and.w	r3, r3, #4
 800018a:	603b      	str	r3, [r7, #0]
 800018c:	683b      	ldr	r3, [r7, #0]

	///
	/// defining the LCD pins and ports
	Alcd_t lcd = { .Data_GPIO = GPIOA, .Data_GPIO_Start_Pin = 0, .RS_GPIO =
 800018e:	f107 0314 	add.w	r3, r7, #20
 8000192:	2220      	movs	r2, #32
 8000194:	2100      	movs	r1, #0
 8000196:	4618      	mov	r0, r3
 8000198:	f001 fd04 	bl	8001ba4 <memset>
 800019c:	4bad      	ldr	r3, [pc, #692]	; (8000454 <main+0x308>)
 800019e:	61bb      	str	r3, [r7, #24]
 80001a0:	4bac      	ldr	r3, [pc, #688]	; (8000454 <main+0x308>)
 80001a2:	623b      	str	r3, [r7, #32]
 80001a4:	2320      	movs	r3, #32
 80001a6:	84bb      	strh	r3, [r7, #36]	; 0x24
 80001a8:	4baa      	ldr	r3, [pc, #680]	; (8000454 <main+0x308>)
 80001aa:	62bb      	str	r3, [r7, #40]	; 0x28
 80001ac:	2310      	movs	r3, #16
 80001ae:	85bb      	strh	r3, [r7, #44]	; 0x2c

	//variables for hours, minutes and seconds
	uint8_t HH, MM, SS;

	//start flag variable
	uint8_t start_flag = 0;
 80001b0:	2300      	movs	r3, #0
 80001b2:	f887 3034 	strb.w	r3, [r7, #52]	; 0x34

	//initializing the LCD
	Alcd_Init(&lcd, 2, 16);
 80001b6:	f107 0314 	add.w	r3, r7, #20
 80001ba:	2210      	movs	r2, #16
 80001bc:	2102      	movs	r1, #2
 80001be:	4618      	mov	r0, r3
 80001c0:	f000 fb7c 	bl	80008bc <Alcd_Init>

	//initializing the Keypad
	Keypad_Matrix_Init(&key);
 80001c4:	48a4      	ldr	r0, [pc, #656]	; (8000458 <main+0x30c>)
 80001c6:	f000 fd62 	bl	8000c8e <Keypad_Matrix_Init>

	Alcd_Clear(&lcd);
 80001ca:	f107 0314 	add.w	r3, r7, #20
 80001ce:	4618      	mov	r0, r3
 80001d0:	f000 fc48 	bl	8000a64 <Alcd_Clear>

	//displaying the instructions for 5 seconds
	Alcd_PutAt(&lcd, 0, 0, "Start: 1 Stop: 2");
 80001d4:	48a1      	ldr	r0, [pc, #644]	; (800045c <main+0x310>)
 80001d6:	f000 fc99 	bl	8000b0c <Str_Len>
 80001da:	4603      	mov	r3, r0
 80001dc:	b2db      	uxtb	r3, r3
 80001de:	f107 0014 	add.w	r0, r7, #20
 80001e2:	9300      	str	r3, [sp, #0]
 80001e4:	4b9d      	ldr	r3, [pc, #628]	; (800045c <main+0x310>)
 80001e6:	2200      	movs	r2, #0
 80001e8:	2100      	movs	r1, #0
 80001ea:	f000 fc22 	bl	8000a32 <Alcd_PutAt_n>
	Alcd_PutAt(&lcd, 1, 0, "Reset: 3");
 80001ee:	489c      	ldr	r0, [pc, #624]	; (8000460 <main+0x314>)
 80001f0:	f000 fc8c 	bl	8000b0c <Str_Len>
 80001f4:	4603      	mov	r3, r0
 80001f6:	b2db      	uxtb	r3, r3
 80001f8:	f107 0014 	add.w	r0, r7, #20
 80001fc:	9300      	str	r3, [sp, #0]
 80001fe:	4b98      	ldr	r3, [pc, #608]	; (8000460 <main+0x314>)
 8000200:	2200      	movs	r2, #0
 8000202:	2101      	movs	r1, #1
 8000204:	f000 fc15 	bl	8000a32 <Alcd_PutAt_n>
	HAL_Delay(5000);
 8000208:	f241 3088 	movw	r0, #5000	; 0x1388
 800020c:	f000 fe00 	bl	8000e10 <HAL_Delay>

	//clear the instructions
	Alcd_Clear(&lcd);
 8000210:	f107 0314 	add.w	r3, r7, #20
 8000214:	4618      	mov	r0, r3
 8000216:	f000 fc25 	bl	8000a64 <Alcd_Clear>
	/* Infinite loop */
	/* USER CODE BEGIN WHILE */
	while (1) {
		/* USER CODE END WHILE */

		Keypad_Matrix_Refresh(&key);
 800021a:	488f      	ldr	r0, [pc, #572]	; (8000458 <main+0x30c>)
 800021c:	f000 fd46 	bl	8000cac <Keypad_Matrix_Refresh>

		//case start: 1 is selected and time is zero
		//this means if 1 is selected but the time is not zero, nothing happens
		if (Keypad_Matrix_Read_Key(&key, 1) && (HH = 0) && (MM = 0)
 8000220:	2101      	movs	r1, #1
 8000222:	488d      	ldr	r0, [pc, #564]	; (8000458 <main+0x30c>)
 8000224:	f000 fd7a 	bl	8000d1c <Keypad_Matrix_Read_Key>
 8000228:	4603      	mov	r3, r0
 800022a:	2b00      	cmp	r3, #0
 800022c:	d002      	beq.n	8000234 <main+0xe8>
 800022e:	2300      	movs	r3, #0
 8000230:	f887 3037 	strb.w	r3, [r7, #55]	; 0x37

		}

		//stop is pressed (2) and stop watch is running
		//this means that if stop is pressed and the flag is not 1, nothing happens
		if (Keypad_Matrix_Read_Key(&key, 2) && (start_flag = 1)) {
 8000234:	2102      	movs	r1, #2
 8000236:	4888      	ldr	r0, [pc, #544]	; (8000458 <main+0x30c>)
 8000238:	f000 fd70 	bl	8000d1c <Keypad_Matrix_Read_Key>
 800023c:	4603      	mov	r3, r0
 800023e:	2b00      	cmp	r3, #0
 8000240:	d07c      	beq.n	800033c <main+0x1f0>
 8000242:	2301      	movs	r3, #1
 8000244:	f887 3034 	strb.w	r3, [r7, #52]	; 0x34

			//set the start flag to zero
			start_flag = 0;
 8000248:	2300      	movs	r3, #0
 800024a:	f887 3034 	strb.w	r3, [r7, #52]	; 0x34

			//no incrementing happens to the time

			//convert the hours, minutes and seconds into string
			itoa(HH, str_H, 10);
 800024e:	f897 3037 	ldrb.w	r3, [r7, #55]	; 0x37
 8000252:	f107 0110 	add.w	r1, r7, #16
 8000256:	220a      	movs	r2, #10
 8000258:	4618      	mov	r0, r3
 800025a:	f001 fca1 	bl	8001ba0 <itoa>
			itoa(MM, str_M, 10);
 800025e:	f897 3036 	ldrb.w	r3, [r7, #54]	; 0x36
 8000262:	f107 010c 	add.w	r1, r7, #12
 8000266:	220a      	movs	r2, #10
 8000268:	4618      	mov	r0, r3
 800026a:	f001 fc99 	bl	8001ba0 <itoa>
			itoa(SS, str_S, 10);
 800026e:	f897 3035 	ldrb.w	r3, [r7, #53]	; 0x35
 8000272:	f107 0108 	add.w	r1, r7, #8
 8000276:	220a      	movs	r2, #10
 8000278:	4618      	mov	r0, r3
 800027a:	f001 fc91 	bl	8001ba0 <itoa>

			//displaying the time
			Alcd_Clear(&lcd);
 800027e:	f107 0314 	add.w	r3, r7, #20
 8000282:	4618      	mov	r0, r3
 8000284:	f000 fbee 	bl	8000a64 <Alcd_Clear>
			Alcd_PutAt(&lcd, 0, 0, "Stopped");
 8000288:	4876      	ldr	r0, [pc, #472]	; (8000464 <main+0x318>)
 800028a:	f000 fc3f 	bl	8000b0c <Str_Len>
 800028e:	4603      	mov	r3, r0
 8000290:	b2db      	uxtb	r3, r3
 8000292:	f107 0014 	add.w	r0, r7, #20
 8000296:	9300      	str	r3, [sp, #0]
 8000298:	4b72      	ldr	r3, [pc, #456]	; (8000464 <main+0x318>)
 800029a:	2200      	movs	r2, #0
 800029c:	2100      	movs	r1, #0
 800029e:	f000 fbc8 	bl	8000a32 <Alcd_PutAt_n>
			Alcd_PutAt(&lcd, 1, 0, str_H);
 80002a2:	f107 0310 	add.w	r3, r7, #16
 80002a6:	4618      	mov	r0, r3
 80002a8:	f000 fc30 	bl	8000b0c <Str_Len>
 80002ac:	4603      	mov	r3, r0
 80002ae:	b2db      	uxtb	r3, r3
 80002b0:	f107 0210 	add.w	r2, r7, #16
 80002b4:	f107 0014 	add.w	r0, r7, #20
 80002b8:	9300      	str	r3, [sp, #0]
 80002ba:	4613      	mov	r3, r2
 80002bc:	2200      	movs	r2, #0
 80002be:	2101      	movs	r1, #1
 80002c0:	f000 fbb7 	bl	8000a32 <Alcd_PutAt_n>
			Alcd_PutAt(&lcd, 1, 2, ":");
 80002c4:	4868      	ldr	r0, [pc, #416]	; (8000468 <main+0x31c>)
 80002c6:	f000 fc21 	bl	8000b0c <Str_Len>
 80002ca:	4603      	mov	r3, r0
 80002cc:	b2db      	uxtb	r3, r3
 80002ce:	f107 0014 	add.w	r0, r7, #20
 80002d2:	9300      	str	r3, [sp, #0]
 80002d4:	4b64      	ldr	r3, [pc, #400]	; (8000468 <main+0x31c>)
 80002d6:	2202      	movs	r2, #2
 80002d8:	2101      	movs	r1, #1
 80002da:	f000 fbaa 	bl	8000a32 <Alcd_PutAt_n>
			Alcd_PutAt(&lcd, 1, 3, str_M);
 80002de:	f107 030c 	add.w	r3, r7, #12
 80002e2:	4618      	mov	r0, r3
 80002e4:	f000 fc12 	bl	8000b0c <Str_Len>
 80002e8:	4603      	mov	r3, r0
 80002ea:	b2db      	uxtb	r3, r3
 80002ec:	f107 020c 	add.w	r2, r7, #12
 80002f0:	f107 0014 	add.w	r0, r7, #20
 80002f4:	9300      	str	r3, [sp, #0]
 80002f6:	4613      	mov	r3, r2
 80002f8:	2203      	movs	r2, #3
 80002fa:	2101      	movs	r1, #1
 80002fc:	f000 fb99 	bl	8000a32 <Alcd_PutAt_n>
			Alcd_PutAt(&lcd, 1, 5, ":");
 8000300:	4859      	ldr	r0, [pc, #356]	; (8000468 <main+0x31c>)
 8000302:	f000 fc03 	bl	8000b0c <Str_Len>
 8000306:	4603      	mov	r3, r0
 8000308:	b2db      	uxtb	r3, r3
 800030a:	f107 0014 	add.w	r0, r7, #20
 800030e:	9300      	str	r3, [sp, #0]
 8000310:	4b55      	ldr	r3, [pc, #340]	; (8000468 <main+0x31c>)
 8000312:	2205      	movs	r2, #5
 8000314:	2101      	movs	r1, #1
 8000316:	f000 fb8c 	bl	8000a32 <Alcd_PutAt_n>
			Alcd_PutAt(&lcd, 1, 6, str_H);
 800031a:	f107 0310 	add.w	r3, r7, #16
 800031e:	4618      	mov	r0, r3
 8000320:	f000 fbf4 	bl	8000b0c <Str_Len>
 8000324:	4603      	mov	r3, r0
 8000326:	b2db      	uxtb	r3, r3
 8000328:	f107 0210 	add.w	r2, r7, #16
 800032c:	f107 0014 	add.w	r0, r7, #20
 8000330:	9300      	str	r3, [sp, #0]
 8000332:	4613      	mov	r3, r2
 8000334:	2206      	movs	r2, #6
 8000336:	2101      	movs	r1, #1
 8000338:	f000 fb7b 	bl	8000a32 <Alcd_PutAt_n>
		}

		//if the reset button (3) is pressed
		//the start flag is not taken into consideration
		if (Keypad_Matrix_Read_Key(&key, 3)) {
 800033c:	2103      	movs	r1, #3
 800033e:	4846      	ldr	r0, [pc, #280]	; (8000458 <main+0x30c>)
 8000340:	f000 fcec 	bl	8000d1c <Keypad_Matrix_Read_Key>
 8000344:	4603      	mov	r3, r0
 8000346:	2b00      	cmp	r3, #0
 8000348:	f43f af67 	beq.w	800021a <main+0xce>

			//reseting the time
			HH = 0, MM = 0, SS = 0;
 800034c:	2300      	movs	r3, #0
 800034e:	f887 3037 	strb.w	r3, [r7, #55]	; 0x37
 8000352:	2300      	movs	r3, #0
 8000354:	f887 3036 	strb.w	r3, [r7, #54]	; 0x36
 8000358:	2300      	movs	r3, #0
 800035a:	f887 3035 	strb.w	r3, [r7, #53]	; 0x35

			//convert the hours, minutes and seconds into string
			itoa(HH, str_H, 10);
 800035e:	f897 3037 	ldrb.w	r3, [r7, #55]	; 0x37
 8000362:	f107 0110 	add.w	r1, r7, #16
 8000366:	220a      	movs	r2, #10
 8000368:	4618      	mov	r0, r3
 800036a:	f001 fc19 	bl	8001ba0 <itoa>
			itoa(MM, str_M, 10);
 800036e:	f897 3036 	ldrb.w	r3, [r7, #54]	; 0x36
 8000372:	f107 010c 	add.w	r1, r7, #12
 8000376:	220a      	movs	r2, #10
 8000378:	4618      	mov	r0, r3
 800037a:	f001 fc11 	bl	8001ba0 <itoa>
			itoa(SS, str_S, 10);
 800037e:	f897 3035 	ldrb.w	r3, [r7, #53]	; 0x35
 8000382:	f107 0108 	add.w	r1, r7, #8
 8000386:	220a      	movs	r2, #10
 8000388:	4618      	mov	r0, r3
 800038a:	f001 fc09 	bl	8001ba0 <itoa>

			//displaying the time
			Alcd_Clear(&lcd);
 800038e:	f107 0314 	add.w	r3, r7, #20
 8000392:	4618      	mov	r0, r3
 8000394:	f000 fb66 	bl	8000a64 <Alcd_Clear>
			Alcd_PutAt(&lcd, 0, 0, "Reset");
 8000398:	4834      	ldr	r0, [pc, #208]	; (800046c <main+0x320>)
 800039a:	f000 fbb7 	bl	8000b0c <Str_Len>
 800039e:	4603      	mov	r3, r0
 80003a0:	b2db      	uxtb	r3, r3
 80003a2:	f107 0014 	add.w	r0, r7, #20
 80003a6:	9300      	str	r3, [sp, #0]
 80003a8:	4b30      	ldr	r3, [pc, #192]	; (800046c <main+0x320>)
 80003aa:	2200      	movs	r2, #0
 80003ac:	2100      	movs	r1, #0
 80003ae:	f000 fb40 	bl	8000a32 <Alcd_PutAt_n>
			Alcd_PutAt(&lcd, 1, 0, str_H);
 80003b2:	f107 0310 	add.w	r3, r7, #16
 80003b6:	4618      	mov	r0, r3
 80003b8:	f000 fba8 	bl	8000b0c <Str_Len>
 80003bc:	4603      	mov	r3, r0
 80003be:	b2db      	uxtb	r3, r3
 80003c0:	f107 0210 	add.w	r2, r7, #16
 80003c4:	f107 0014 	add.w	r0, r7, #20
 80003c8:	9300      	str	r3, [sp, #0]
 80003ca:	4613      	mov	r3, r2
 80003cc:	2200      	movs	r2, #0
 80003ce:	2101      	movs	r1, #1
 80003d0:	f000 fb2f 	bl	8000a32 <Alcd_PutAt_n>
			Alcd_PutAt(&lcd, 1, 2, ":");
 80003d4:	4824      	ldr	r0, [pc, #144]	; (8000468 <main+0x31c>)
 80003d6:	f000 fb99 	bl	8000b0c <Str_Len>
 80003da:	4603      	mov	r3, r0
 80003dc:	b2db      	uxtb	r3, r3
 80003de:	f107 0014 	add.w	r0, r7, #20
 80003e2:	9300      	str	r3, [sp, #0]
 80003e4:	4b20      	ldr	r3, [pc, #128]	; (8000468 <main+0x31c>)
 80003e6:	2202      	movs	r2, #2
 80003e8:	2101      	movs	r1, #1
 80003ea:	f000 fb22 	bl	8000a32 <Alcd_PutAt_n>
			Alcd_PutAt(&lcd, 1, 3, str_M);
 80003ee:	f107 030c 	add.w	r3, r7, #12
 80003f2:	4618      	mov	r0, r3
 80003f4:	f000 fb8a 	bl	8000b0c <Str_Len>
 80003f8:	4603      	mov	r3, r0
 80003fa:	b2db      	uxtb	r3, r3
 80003fc:	f107 020c 	add.w	r2, r7, #12
 8000400:	f107 0014 	add.w	r0, r7, #20
 8000404:	9300      	str	r3, [sp, #0]
 8000406:	4613      	mov	r3, r2
 8000408:	2203      	movs	r2, #3
 800040a:	2101      	movs	r1, #1
 800040c:	f000 fb11 	bl	8000a32 <Alcd_PutAt_n>
			Alcd_PutAt(&lcd, 1, 5, ":");
 8000410:	4815      	ldr	r0, [pc, #84]	; (8000468 <main+0x31c>)
 8000412:	f000 fb7b 	bl	8000b0c <Str_Len>
 8000416:	4603      	mov	r3, r0
 8000418:	b2db      	uxtb	r3, r3
 800041a:	f107 0014 	add.w	r0, r7, #20
 800041e:	9300      	str	r3, [sp, #0]
 8000420:	4b11      	ldr	r3, [pc, #68]	; (8000468 <main+0x31c>)
 8000422:	2205      	movs	r2, #5
 8000424:	2101      	movs	r1, #1
 8000426:	f000 fb04 	bl	8000a32 <Alcd_PutAt_n>
			Alcd_PutAt(&lcd, 1, 6, str_H);
 800042a:	f107 0310 	add.w	r3, r7, #16
 800042e:	4618      	mov	r0, r3
 8000430:	f000 fb6c 	bl	8000b0c <Str_Len>
 8000434:	4603      	mov	r3, r0
 8000436:	b2db      	uxtb	r3, r3
 8000438:	f107 0210 	add.w	r2, r7, #16
 800043c:	f107 0014 	add.w	r0, r7, #20
 8000440:	9300      	str	r3, [sp, #0]
 8000442:	4613      	mov	r3, r2
 8000444:	2206      	movs	r2, #6
 8000446:	2101      	movs	r1, #1
 8000448:	f000 faf3 	bl	8000a32 <Alcd_PutAt_n>
		Keypad_Matrix_Refresh(&key);
 800044c:	e6e5      	b.n	800021a <main+0xce>
 800044e:	bf00      	nop
 8000450:	40021000 	.word	0x40021000
 8000454:	40010800 	.word	0x40010800
 8000458:	20000000 	.word	0x20000000
 800045c:	08001c50 	.word	0x08001c50
 8000460:	08001c64 	.word	0x08001c64
 8000464:	08001c70 	.word	0x08001c70
 8000468:	08001c78 	.word	0x08001c78
 800046c:	08001c7c 	.word	0x08001c7c

08000470 <SystemClock_Config>:

/**
 * @brief System Clock Configuration
 * @retval None
 */
void SystemClock_Config(void) {
 8000470:	b580      	push	{r7, lr}
 8000472:	b090      	sub	sp, #64	; 0x40
 8000474:	af00      	add	r7, sp, #0
	RCC_OscInitTypeDef RCC_OscInitStruct = { 0 };
 8000476:	f107 0318 	add.w	r3, r7, #24
 800047a:	2228      	movs	r2, #40	; 0x28
 800047c:	2100      	movs	r1, #0
 800047e:	4618      	mov	r0, r3
 8000480:	f001 fb90 	bl	8001ba4 <memset>
	RCC_ClkInitTypeDef RCC_ClkInitStruct = { 0 };
 8000484:	1d3b      	adds	r3, r7, #4
 8000486:	2200      	movs	r2, #0
 8000488:	601a      	str	r2, [r3, #0]
 800048a:	605a      	str	r2, [r3, #4]
 800048c:	609a      	str	r2, [r3, #8]
 800048e:	60da      	str	r2, [r3, #12]
 8000490:	611a      	str	r2, [r3, #16]

	/** Initializes the RCC Oscillators according to the specified parameters
	 * in the RCC_OscInitTypeDef structure.
	 */
	RCC_OscInitStruct.OscillatorType = RCC_OSCILLATORTYPE_HSE;
 8000492:	2301      	movs	r3, #1
 8000494:	61bb      	str	r3, [r7, #24]
	RCC_OscInitStruct.HSEState = RCC_HSE_ON;
 8000496:	f44f 3380 	mov.w	r3, #65536	; 0x10000
 800049a:	61fb      	str	r3, [r7, #28]
	RCC_OscInitStruct.HSEPredivValue = RCC_HSE_PREDIV_DIV1;
 800049c:	2300      	movs	r3, #0
 800049e:	623b      	str	r3, [r7, #32]
	RCC_OscInitStruct.HSIState = RCC_HSI_ON;
 80004a0:	2301      	movs	r3, #1
 80004a2:	62bb      	str	r3, [r7, #40]	; 0x28
	RCC_OscInitStruct.PLL.PLLState = RCC_PLL_ON;
 80004a4:	2302      	movs	r3, #2
 80004a6:	637b      	str	r3, [r7, #52]	; 0x34
	RCC_OscInitStruct.PLL.PLLSource = RCC_PLLSOURCE_HSE;
 80004a8:	f44f 3380 	mov.w	r3, #65536	; 0x10000
 80004ac:	63bb      	str	r3, [r7, #56]	; 0x38
	RCC_OscInitStruct.PLL.PLLMUL = RCC_PLL_MUL9;
 80004ae:	f44f 13e0 	mov.w	r3, #1835008	; 0x1c0000
 80004b2:	63fb      	str	r3, [r7, #60]	; 0x3c
	if (HAL_RCC_OscConfig(&RCC_OscInitStruct) != HAL_OK) {
 80004b4:	f107 0318 	add.w	r3, r7, #24
 80004b8:	4618      	mov	r0, r3
 80004ba:	f000 ff4d 	bl	8001358 <HAL_RCC_OscConfig>
 80004be:	4603      	mov	r3, r0
 80004c0:	2b00      	cmp	r3, #0
 80004c2:	d001      	beq.n	80004c8 <SystemClock_Config+0x58>
		Error_Handler();
 80004c4:	f000 f854 	bl	8000570 <Error_Handler>
	}

	/** Initializes the CPU, AHB and APB buses clocks
	 */
	RCC_ClkInitStruct.ClockType = RCC_CLOCKTYPE_HCLK | RCC_CLOCKTYPE_SYSCLK
 80004c8:	230f      	movs	r3, #15
 80004ca:	607b      	str	r3, [r7, #4]
			| RCC_CLOCKTYPE_PCLK1 | RCC_CLOCKTYPE_PCLK2;
	RCC_ClkInitStruct.SYSCLKSource = RCC_SYSCLKSOURCE_PLLCLK;
 80004cc:	2302      	movs	r3, #2
 80004ce:	60bb      	str	r3, [r7, #8]
	RCC_ClkInitStruct.AHBCLKDivider = RCC_SYSCLK_DIV1;
 80004d0:	2300      	movs	r3, #0
 80004d2:	60fb      	str	r3, [r7, #12]
	RCC_ClkInitStruct.APB1CLKDivider = RCC_HCLK_DIV2;
 80004d4:	f44f 6380 	mov.w	r3, #1024	; 0x400
 80004d8:	613b      	str	r3, [r7, #16]
	RCC_ClkInitStruct.APB2CLKDivider = RCC_HCLK_DIV1;
 80004da:	2300      	movs	r3, #0
 80004dc:	617b      	str	r3, [r7, #20]

	if (HAL_RCC_ClockConfig(&RCC_ClkInitStruct, FLASH_LATENCY_2) != HAL_OK) {
 80004de:	1d3b      	adds	r3, r7, #4
 80004e0:	2102      	movs	r1, #2
 80004e2:	4618      	mov	r0, r3
 80004e4:	f001 f9ba 	bl	800185c <HAL_RCC_ClockConfig>
 80004e8:	4603      	mov	r3, r0
 80004ea:	2b00      	cmp	r3, #0
 80004ec:	d001      	beq.n	80004f2 <SystemClock_Config+0x82>
		Error_Handler();
 80004ee:	f000 f83f 	bl	8000570 <Error_Handler>
	}
}
 80004f2:	bf00      	nop
 80004f4:	3740      	adds	r7, #64	; 0x40
 80004f6:	46bd      	mov	sp, r7
 80004f8:	bd80      	pop	{r7, pc}
	...

080004fc <MX_GPIO_Init>:
/**
 * @brief GPIO Initialization Function
 * @param None
 * @retval None
 */
static void MX_GPIO_Init(void) {
 80004fc:	b480      	push	{r7}
 80004fe:	b085      	sub	sp, #20
 8000500:	af00      	add	r7, sp, #0
	/* USER CODE BEGIN MX_GPIO_Init_1 */
	/* USER CODE END MX_GPIO_Init_1 */

	/* GPIO Ports Clock Enable */
	__HAL_RCC_GPIOD_CLK_ENABLE();
 8000502:	4b1a      	ldr	r3, [pc, #104]	; (800056c <MX_GPIO_Init+0x70>)
 8000504:	699b      	ldr	r3, [r3, #24]
 8000506:	4a19      	ldr	r2, [pc, #100]	; (800056c <MX_GPIO_Init+0x70>)
 8000508:	f043 0320 	orr.w	r3, r3, #32
 800050c:	6193      	str	r3, [r2, #24]
 800050e:	4b17      	ldr	r3, [pc, #92]	; (800056c <MX_GPIO_Init+0x70>)
 8000510:	699b      	ldr	r3, [r3, #24]
 8000512:	f003 0320 	and.w	r3, r3, #32
 8000516:	60fb      	str	r3, [r7, #12]
 8000518:	68fb      	ldr	r3, [r7, #12]
	__HAL_RCC_GPIOA_CLK_ENABLE();
 800051a:	4b14      	ldr	r3, [pc, #80]	; (800056c <MX_GPIO_Init+0x70>)
 800051c:	699b      	ldr	r3, [r3, #24]
 800051e:	4a13      	ldr	r2, [pc, #76]	; (800056c <MX_GPIO_Init+0x70>)
 8000520:	f043 0304 	orr.w	r3, r3, #4
 8000524:	6193      	str	r3, [r2, #24]
 8000526:	4b11      	ldr	r3, [pc, #68]	; (800056c <MX_GPIO_Init+0x70>)
 8000528:	699b      	ldr	r3, [r3, #24]
 800052a:	f003 0304 	and.w	r3, r3, #4
 800052e:	60bb      	str	r3, [r7, #8]
 8000530:	68bb      	ldr	r3, [r7, #8]
	__HAL_RCC_GPIOB_CLK_ENABLE();
 8000532:	4b0e      	ldr	r3, [pc, #56]	; (800056c <MX_GPIO_Init+0x70>)
 8000534:	699b      	ldr	r3, [r3, #24]
 8000536:	4a0d      	ldr	r2, [pc, #52]	; (800056c <MX_GPIO_Init+0x70>)
 8000538:	f043 0308 	orr.w	r3, r3, #8
 800053c:	6193      	str	r3, [r2, #24]
 800053e:	4b0b      	ldr	r3, [pc, #44]	; (800056c <MX_GPIO_Init+0x70>)
 8000540:	699b      	ldr	r3, [r3, #24]
 8000542:	f003 0308 	and.w	r3, r3, #8
 8000546:	607b      	str	r3, [r7, #4]
 8000548:	687b      	ldr	r3, [r7, #4]
	__HAL_RCC_GPIOC_CLK_ENABLE();
 800054a:	4b08      	ldr	r3, [pc, #32]	; (800056c <MX_GPIO_Init+0x70>)
 800054c:	699b      	ldr	r3, [r3, #24]
 800054e:	4a07      	ldr	r2, [pc, #28]	; (800056c <MX_GPIO_Init+0x70>)
 8000550:	f043 0310 	orr.w	r3, r3, #16
 8000554:	6193      	str	r3, [r2, #24]
 8000556:	4b05      	ldr	r3, [pc, #20]	; (800056c <MX_GPIO_Init+0x70>)
 8000558:	699b      	ldr	r3, [r3, #24]
 800055a:	f003 0310 	and.w	r3, r3, #16
 800055e:	603b      	str	r3, [r7, #0]
 8000560:	683b      	ldr	r3, [r7, #0]

	/* USER CODE BEGIN MX_GPIO_Init_2 */
	/* USER CODE END MX_GPIO_Init_2 */
}
 8000562:	bf00      	nop
 8000564:	3714      	adds	r7, #20
 8000566:	46bd      	mov	sp, r7
 8000568:	bc80      	pop	{r7}
 800056a:	4770      	bx	lr
 800056c:	40021000 	.word	0x40021000

08000570 <Error_Handler>:

/**
 * @brief  This function is executed in case of error occurrence.
 * @retval None
 */
void Error_Handler(void) {
 8000570:	b480      	push	{r7}
 8000572:	af00      	add	r7, sp, #0
  \details Disables IRQ interrupts by setting the I-bit in the CPSR.
           Can only be executed in Privileged modes.
 */
__STATIC_FORCEINLINE void __disable_irq(void)
{
  __ASM volatile ("cpsid i" : : : "memory");
 8000574:	b672      	cpsid	i
}
 8000576:	bf00      	nop
	/* USER CODE BEGIN Error_Handler_Debug */
	/* User can add his own implementation to report the HAL error return state */
	__disable_irq();
	while (1) {
 8000578:	e7fe      	b.n	8000578 <Error_Handler+0x8>
	...

0800057c <HAL_MspInit>:
 800057c:	b480      	push	{r7}
 800057e:	b085      	sub	sp, #20
 8000580:	af00      	add	r7, sp, #0
 8000582:	4b15      	ldr	r3, [pc, #84]	; (80005d8 <HAL_MspInit+0x5c>)
 8000584:	699b      	ldr	r3, [r3, #24]
 8000586:	4a14      	ldr	r2, [pc, #80]	; (80005d8 <HAL_MspInit+0x5c>)
 8000588:	f043 0301 	orr.w	r3, r3, #1
 800058c:	6193      	str	r3, [r2, #24]
 800058e:	4b12      	ldr	r3, [pc, #72]	; (80005d8 <HAL_MspInit+0x5c>)
 8000590:	699b      	ldr	r3, [r3, #24]
 8000592:	f003 0301 	and.w	r3, r3, #1
 8000596:	60bb      	str	r3, [r7, #8]
 8000598:	68bb      	ldr	r3, [r7, #8]
 800059a:	4b0f      	ldr	r3, [pc, #60]	; (80005d8 <HAL_MspInit+0x5c>)
 800059c:	69db      	ldr	r3, [r3, #28]
 800059e:	4a0e      	ldr	r2, [pc, #56]	; (80005d8 <HAL_MspInit+0x5c>)
 80005a0:	f043 5380 	orr.w	r3, r3, #268435456	; 0x10000000
 80005a4:	61d3      	str	r3, [r2, #28]
 80005a6:	4b0c      	ldr	r3, [pc, #48]	; (80005d8 <HAL_MspInit+0x5c>)
 80005a8:	69db      	ldr	r3, [r3, #28]
 80005aa:	f003 5380 	and.w	r3, r3, #268435456	; 0x10000000
 80005ae:	607b      	str	r3, [r7, #4]
 80005b0:	687b      	ldr	r3, [r7, #4]
 80005b2:	4b0a      	ldr	r3, [pc, #40]	; (80005dc <HAL_MspInit+0x60>)
 80005b4:	685b      	ldr	r3, [r3, #4]
 80005b6:	60fb      	str	r3, [r7, #12]
 80005b8:	68fb      	ldr	r3, [r7, #12]
 80005ba:	f023 63e0 	bic.w	r3, r3, #117440512	; 0x7000000
 80005be:	60fb      	str	r3, [r7, #12]
 80005c0:	68fb      	ldr	r3, [r7, #12]
 80005c2:	f043 7300 	orr.w	r3, r3, #33554432	; 0x2000000
 80005c6:	60fb      	str	r3, [r7, #12]
 80005c8:	4a04      	ldr	r2, [pc, #16]	; (80005dc <HAL_MspInit+0x60>)
 80005ca:	68fb      	ldr	r3, [r7, #12]
 80005cc:	6053      	str	r3, [r2, #4]
 80005ce:	bf00      	nop
 80005d0:	3714      	adds	r7, #20
 80005d2:	46bd      	mov	sp, r7
 80005d4:	bc80      	pop	{r7}
 80005d6:	4770      	bx	lr
 80005d8:	40021000 	.word	0x40021000
 80005dc:	40010000 	.word	0x40010000

080005e0 <NMI_Handler>:
 80005e0:	b480      	push	{r7}
 80005e2:	af00      	add	r7, sp, #0
 80005e4:	e7fe      	b.n	80005e4 <NMI_Handler+0x4>

080005e6 <HardFault_Handler>:
 80005e6:	b480      	push	{r7}
 80005e8:	af00      	add	r7, sp, #0
 80005ea:	e7fe      	b.n	80005ea <HardFault_Handler+0x4>

080005ec <MemManage_Handler>:
 80005ec:	b480      	push	{r7}
 80005ee:	af00      	add	r7, sp, #0
 80005f0:	e7fe      	b.n	80005f0 <MemManage_Handler+0x4>

080005f2 <BusFault_Handler>:
 80005f2:	b480      	push	{r7}
 80005f4:	af00      	add	r7, sp, #0
 80005f6:	e7fe      	b.n	80005f6 <BusFault_Handler+0x4>

080005f8 <UsageFault_Handler>:
 80005f8:	b480      	push	{r7}
 80005fa:	af00      	add	r7, sp, #0
 80005fc:	e7fe      	b.n	80005fc <UsageFault_Handler+0x4>

080005fe <SVC_Handler>:
 80005fe:	b480      	push	{r7}
 8000600:	af00      	add	r7, sp, #0
 8000602:	bf00      	nop
 8000604:	46bd      	mov	sp, r7
 8000606:	bc80      	pop	{r7}
 8000608:	4770      	bx	lr

0800060a <DebugMon_Handler>:
 800060a:	b480      	push	{r7}
 800060c:	af00      	add	r7, sp, #0
 800060e:	bf00      	nop
 8000610:	46bd      	mov	sp, r7
 8000612:	bc80      	pop	{r7}
 8000614:	4770      	bx	lr

08000616 <PendSV_Handler>:
 8000616:	b480      	push	{r7}
 8000618:	af00      	add	r7, sp, #0
 800061a:	bf00      	nop
 800061c:	46bd      	mov	sp, r7
 800061e:	bc80      	pop	{r7}
 8000620:	4770      	bx	lr

08000622 <SysTick_Handler>:
 8000622:	b580      	push	{r7, lr}
 8000624:	af00      	add	r7, sp, #0
 8000626:	f000 fbd7 	bl	8000dd8 <HAL_IncTick>
 800062a:	bf00      	nop
 800062c:	bd80      	pop	{r7, pc}

0800062e <SystemInit>:
 800062e:	b480      	push	{r7}
 8000630:	af00      	add	r7, sp, #0
 8000632:	bf00      	nop
 8000634:	46bd      	mov	sp, r7
 8000636:	bc80      	pop	{r7}
 8000638:	4770      	bx	lr
	...

0800063c <Reset_Handler>:
 800063c:	f7ff fff7 	bl	800062e <SystemInit>
 8000640:	480b      	ldr	r0, [pc, #44]	; (8000670 <LoopFillZerobss+0xe>)
 8000642:	490c      	ldr	r1, [pc, #48]	; (8000674 <LoopFillZerobss+0x12>)
 8000644:	4a0c      	ldr	r2, [pc, #48]	; (8000678 <LoopFillZerobss+0x16>)
 8000646:	2300      	movs	r3, #0
 8000648:	e002      	b.n	8000650 <LoopCopyDataInit>

0800064a <CopyDataInit>:
 800064a:	58d4      	ldr	r4, [r2, r3]
 800064c:	50c4      	str	r4, [r0, r3]
 800064e:	3304      	adds	r3, #4

08000650 <LoopCopyDataInit>:
 8000650:	18c4      	adds	r4, r0, r3
 8000652:	428c      	cmp	r4, r1
 8000654:	d3f9      	bcc.n	800064a <CopyDataInit>
 8000656:	4a09      	ldr	r2, [pc, #36]	; (800067c <LoopFillZerobss+0x1a>)
 8000658:	4c09      	ldr	r4, [pc, #36]	; (8000680 <LoopFillZerobss+0x1e>)
 800065a:	2300      	movs	r3, #0
 800065c:	e001      	b.n	8000662 <LoopFillZerobss>

0800065e <FillZerobss>:
 800065e:	6013      	str	r3, [r2, #0]
 8000660:	3204      	adds	r2, #4

08000662 <LoopFillZerobss>:
 8000662:	42a2      	cmp	r2, r4
 8000664:	d3fb      	bcc.n	800065e <FillZerobss>
 8000666:	f001 fa5f 	bl	8001b28 <__libc_init_array>
 800066a:	f7ff fd6f 	bl	800014c <main>
 800066e:	4770      	bx	lr
 8000670:	20000000 	.word	0x20000000
 8000674:	20000028 	.word	0x20000028
 8000678:	08001cd4 	.word	0x08001cd4
 800067c:	20000028 	.word	0x20000028
 8000680:	20000048 	.word	0x20000048

08000684 <ADC1_2_IRQHandler>:
 8000684:	e7fe      	b.n	8000684 <ADC1_2_IRQHandler>
	...

08000688 <DWT_Delay_Init>:
 8000688:	b480      	push	{r7}
 800068a:	af00      	add	r7, sp, #0
 800068c:	4b14      	ldr	r3, [pc, #80]	; (80006e0 <DWT_Delay_Init+0x58>)
 800068e:	68db      	ldr	r3, [r3, #12]
 8000690:	4a13      	ldr	r2, [pc, #76]	; (80006e0 <DWT_Delay_Init+0x58>)
 8000692:	f023 7380 	bic.w	r3, r3, #16777216	; 0x1000000
 8000696:	60d3      	str	r3, [r2, #12]
 8000698:	4b11      	ldr	r3, [pc, #68]	; (80006e0 <DWT_Delay_Init+0x58>)
 800069a:	68db      	ldr	r3, [r3, #12]
 800069c:	4a10      	ldr	r2, [pc, #64]	; (80006e0 <DWT_Delay_Init+0x58>)
 800069e:	f043 7380 	orr.w	r3, r3, #16777216	; 0x1000000
 80006a2:	60d3      	str	r3, [r2, #12]
 80006a4:	4b0f      	ldr	r3, [pc, #60]	; (80006e4 <DWT_Delay_Init+0x5c>)
 80006a6:	681b      	ldr	r3, [r3, #0]
 80006a8:	4a0e      	ldr	r2, [pc, #56]	; (80006e4 <DWT_Delay_Init+0x5c>)
 80006aa:	f023 0301 	bic.w	r3, r3, #1
 80006ae:	6013      	str	r3, [r2, #0]
 80006b0:	4b0c      	ldr	r3, [pc, #48]	; (80006e4 <DWT_Delay_Init+0x5c>)
 80006b2:	681b      	ldr	r3, [r3, #0]
 80006b4:	4a0b      	ldr	r2, [pc, #44]	; (80006e4 <DWT_Delay_Init+0x5c>)
 80006b6:	f043 0301 	orr.w	r3, r3, #1
 80006ba:	6013      	str	r3, [r2, #0]
 80006bc:	4b09      	ldr	r3, [pc, #36]	; (80006e4 <DWT_Delay_Init+0x5c>)
 80006be:	2200      	movs	r2, #0
 80006c0:	605a      	str	r2, [r3, #4]
 80006c2:	bf00      	nop
 80006c4:	bf00      	nop
 80006c6:	bf00      	nop
 80006c8:	4b06      	ldr	r3, [pc, #24]	; (80006e4 <DWT_Delay_Init+0x5c>)
 80006ca:	685b      	ldr	r3, [r3, #4]
 80006cc:	2b00      	cmp	r3, #0
 80006ce:	d001      	beq.n	80006d4 <DWT_Delay_Init+0x4c>
 80006d0:	2300      	movs	r3, #0
 80006d2:	e000      	b.n	80006d6 <DWT_Delay_Init+0x4e>
 80006d4:	2301      	movs	r3, #1
 80006d6:	4618      	mov	r0, r3
 80006d8:	46bd      	mov	sp, r7
 80006da:	bc80      	pop	{r7}
 80006dc:	4770      	bx	lr
 80006de:	bf00      	nop
 80006e0:	e000edf0 	.word	0xe000edf0
 80006e4:	e0001000 	.word	0xe0001000

080006e8 <DWT_Delay_us>:
 80006e8:	b580      	push	{r7, lr}
 80006ea:	b084      	sub	sp, #16
 80006ec:	af00      	add	r7, sp, #0
 80006ee:	6078      	str	r0, [r7, #4]
 80006f0:	4b0d      	ldr	r3, [pc, #52]	; (8000728 <DWT_Delay_us+0x40>)
 80006f2:	685b      	ldr	r3, [r3, #4]
 80006f4:	60fb      	str	r3, [r7, #12]
 80006f6:	f001 f9ef 	bl	8001ad8 <HAL_RCC_GetHCLKFreq>
 80006fa:	4603      	mov	r3, r0
 80006fc:	4a0b      	ldr	r2, [pc, #44]	; (800072c <DWT_Delay_us+0x44>)
 80006fe:	fba2 2303 	umull	r2, r3, r2, r3
 8000702:	0c9b      	lsrs	r3, r3, #18
 8000704:	687a      	ldr	r2, [r7, #4]
 8000706:	fb02 f303 	mul.w	r3, r2, r3
 800070a:	607b      	str	r3, [r7, #4]
 800070c:	bf00      	nop
 800070e:	4b06      	ldr	r3, [pc, #24]	; (8000728 <DWT_Delay_us+0x40>)
 8000710:	685a      	ldr	r2, [r3, #4]
 8000712:	68fb      	ldr	r3, [r7, #12]
 8000714:	1ad2      	subs	r2, r2, r3
 8000716:	687b      	ldr	r3, [r7, #4]
 8000718:	429a      	cmp	r2, r3
 800071a:	d3f8      	bcc.n	800070e <DWT_Delay_us+0x26>
 800071c:	bf00      	nop
 800071e:	bf00      	nop
 8000720:	3710      	adds	r7, #16
 8000722:	46bd      	mov	sp, r7
 8000724:	bd80      	pop	{r7, pc}
 8000726:	bf00      	nop
 8000728:	e0001000 	.word	0xe0001000
 800072c:	431bde83 	.word	0x431bde83

08000730 <usDelay>:
 8000730:	b580      	push	{r7, lr}
 8000732:	b082      	sub	sp, #8
 8000734:	af00      	add	r7, sp, #0
 8000736:	4603      	mov	r3, r0
 8000738:	80fb      	strh	r3, [r7, #6]
 800073a:	88fb      	ldrh	r3, [r7, #6]
 800073c:	4618      	mov	r0, r3
 800073e:	f7ff ffd3 	bl	80006e8 <DWT_Delay_us>
 8000742:	bf00      	nop
 8000744:	3708      	adds	r7, #8
 8000746:	46bd      	mov	sp, r7
 8000748:	bd80      	pop	{r7, pc}

0800074a <Write_HalfByte>:
 800074a:	b480      	push	{r7}
 800074c:	b083      	sub	sp, #12
 800074e:	af00      	add	r7, sp, #0
 8000750:	6078      	str	r0, [r7, #4]
 8000752:	460b      	mov	r3, r1
 8000754:	70fb      	strb	r3, [r7, #3]
 8000756:	687b      	ldr	r3, [r7, #4]
 8000758:	685b      	ldr	r3, [r3, #4]
 800075a:	68da      	ldr	r2, [r3, #12]
 800075c:	687b      	ldr	r3, [r7, #4]
 800075e:	7a1b      	ldrb	r3, [r3, #8]
 8000760:	4619      	mov	r1, r3
 8000762:	230f      	movs	r3, #15
 8000764:	408b      	lsls	r3, r1
 8000766:	43db      	mvns	r3, r3
 8000768:	4619      	mov	r1, r3
 800076a:	687b      	ldr	r3, [r7, #4]
 800076c:	685b      	ldr	r3, [r3, #4]
 800076e:	400a      	ands	r2, r1
 8000770:	60da      	str	r2, [r3, #12]
 8000772:	687b      	ldr	r3, [r7, #4]
 8000774:	685b      	ldr	r3, [r3, #4]
 8000776:	68da      	ldr	r2, [r3, #12]
 8000778:	78fb      	ldrb	r3, [r7, #3]
 800077a:	6879      	ldr	r1, [r7, #4]
 800077c:	7a09      	ldrb	r1, [r1, #8]
 800077e:	408b      	lsls	r3, r1
 8000780:	4619      	mov	r1, r3
 8000782:	687b      	ldr	r3, [r7, #4]
 8000784:	685b      	ldr	r3, [r3, #4]
 8000786:	430a      	orrs	r2, r1
 8000788:	60da      	str	r2, [r3, #12]
 800078a:	bf00      	nop
 800078c:	370c      	adds	r7, #12
 800078e:	46bd      	mov	sp, r7
 8000790:	bc80      	pop	{r7}
 8000792:	4770      	bx	lr

08000794 <RS_SET>:
 8000794:	b580      	push	{r7, lr}
 8000796:	b082      	sub	sp, #8
 8000798:	af00      	add	r7, sp, #0
 800079a:	6078      	str	r0, [r7, #4]
 800079c:	460b      	mov	r3, r1
 800079e:	70fb      	strb	r3, [r7, #3]
 80007a0:	687b      	ldr	r3, [r7, #4]
 80007a2:	6958      	ldr	r0, [r3, #20]
 80007a4:	687b      	ldr	r3, [r7, #4]
 80007a6:	8b1b      	ldrh	r3, [r3, #24]
 80007a8:	78fa      	ldrb	r2, [r7, #3]
 80007aa:	4619      	mov	r1, r3
 80007ac:	f000 fdbc 	bl	8001328 <HAL_GPIO_WritePin>
 80007b0:	bf00      	nop
 80007b2:	3708      	adds	r7, #8
 80007b4:	46bd      	mov	sp, r7
 80007b6:	bd80      	pop	{r7, pc}

080007b8 <EN_SET>:
 80007b8:	b580      	push	{r7, lr}
 80007ba:	b082      	sub	sp, #8
 80007bc:	af00      	add	r7, sp, #0
 80007be:	6078      	str	r0, [r7, #4]
 80007c0:	460b      	mov	r3, r1
 80007c2:	70fb      	strb	r3, [r7, #3]
 80007c4:	687b      	ldr	r3, [r7, #4]
 80007c6:	68d8      	ldr	r0, [r3, #12]
 80007c8:	687b      	ldr	r3, [r7, #4]
 80007ca:	8a1b      	ldrh	r3, [r3, #16]
 80007cc:	78fa      	ldrb	r2, [r7, #3]
 80007ce:	4619      	mov	r1, r3
 80007d0:	f000 fdaa 	bl	8001328 <HAL_GPIO_WritePin>
 80007d4:	bf00      	nop
 80007d6:	3708      	adds	r7, #8
 80007d8:	46bd      	mov	sp, r7
 80007da:	bd80      	pop	{r7, pc}

080007dc <Alcd_Init_GPIO>:
 80007dc:	b580      	push	{r7, lr}
 80007de:	b086      	sub	sp, #24
 80007e0:	af00      	add	r7, sp, #0
 80007e2:	6078      	str	r0, [r7, #4]
 80007e4:	f107 0308 	add.w	r3, r7, #8
 80007e8:	2200      	movs	r2, #0
 80007ea:	601a      	str	r2, [r3, #0]
 80007ec:	605a      	str	r2, [r3, #4]
 80007ee:	609a      	str	r2, [r3, #8]
 80007f0:	60da      	str	r2, [r3, #12]
 80007f2:	687b      	ldr	r3, [r7, #4]
 80007f4:	8b1b      	ldrh	r3, [r3, #24]
 80007f6:	60bb      	str	r3, [r7, #8]
 80007f8:	2301      	movs	r3, #1
 80007fa:	60fb      	str	r3, [r7, #12]
 80007fc:	2302      	movs	r3, #2
 80007fe:	617b      	str	r3, [r7, #20]
 8000800:	687b      	ldr	r3, [r7, #4]
 8000802:	695b      	ldr	r3, [r3, #20]
 8000804:	f107 0208 	add.w	r2, r7, #8
 8000808:	4611      	mov	r1, r2
 800080a:	4618      	mov	r0, r3
 800080c:	f000 fc08 	bl	8001020 <HAL_GPIO_Init>
 8000810:	687b      	ldr	r3, [r7, #4]
 8000812:	8a1b      	ldrh	r3, [r3, #16]
 8000814:	60bb      	str	r3, [r7, #8]
 8000816:	687b      	ldr	r3, [r7, #4]
 8000818:	68db      	ldr	r3, [r3, #12]
 800081a:	f107 0208 	add.w	r2, r7, #8
 800081e:	4611      	mov	r1, r2
 8000820:	4618      	mov	r0, r3
 8000822:	f000 fbfd 	bl	8001020 <HAL_GPIO_Init>
 8000826:	687b      	ldr	r3, [r7, #4]
 8000828:	7a1b      	ldrb	r3, [r3, #8]
 800082a:	461a      	mov	r2, r3
 800082c:	230f      	movs	r3, #15
 800082e:	4093      	lsls	r3, r2
 8000830:	60bb      	str	r3, [r7, #8]
 8000832:	687b      	ldr	r3, [r7, #4]
 8000834:	685b      	ldr	r3, [r3, #4]
 8000836:	f107 0208 	add.w	r2, r7, #8
 800083a:	4611      	mov	r1, r2
 800083c:	4618      	mov	r0, r3
 800083e:	f000 fbef 	bl	8001020 <HAL_GPIO_Init>
 8000842:	bf00      	nop
 8000844:	3718      	adds	r7, #24
 8000846:	46bd      	mov	sp, r7
 8000848:	bd80      	pop	{r7, pc}

0800084a <Alcd_SendByte>:
 800084a:	b580      	push	{r7, lr}
 800084c:	b082      	sub	sp, #8
 800084e:	af00      	add	r7, sp, #0
 8000850:	6078      	str	r0, [r7, #4]
 8000852:	460b      	mov	r3, r1
 8000854:	70fb      	strb	r3, [r7, #3]
 8000856:	4613      	mov	r3, r2
 8000858:	70bb      	strb	r3, [r7, #2]
 800085a:	78fb      	ldrb	r3, [r7, #3]
 800085c:	4619      	mov	r1, r3
 800085e:	6878      	ldr	r0, [r7, #4]
 8000860:	f7ff ff98 	bl	8000794 <RS_SET>
 8000864:	78bb      	ldrb	r3, [r7, #2]
 8000866:	091b      	lsrs	r3, r3, #4
 8000868:	b2db      	uxtb	r3, r3
 800086a:	4619      	mov	r1, r3
 800086c:	6878      	ldr	r0, [r7, #4]
 800086e:	f7ff ff6c 	bl	800074a <Write_HalfByte>
 8000872:	2101      	movs	r1, #1
 8000874:	6878      	ldr	r0, [r7, #4]
 8000876:	f7ff ff9f 	bl	80007b8 <EN_SET>
 800087a:	200a      	movs	r0, #10
 800087c:	f7ff ff58 	bl	8000730 <usDelay>
 8000880:	2100      	movs	r1, #0
 8000882:	6878      	ldr	r0, [r7, #4]
 8000884:	f7ff ff98 	bl	80007b8 <EN_SET>
 8000888:	2064      	movs	r0, #100	; 0x64
 800088a:	f7ff ff51 	bl	8000730 <usDelay>
 800088e:	78bb      	ldrb	r3, [r7, #2]
 8000890:	4619      	mov	r1, r3
 8000892:	6878      	ldr	r0, [r7, #4]
 8000894:	f7ff ff59 	bl	800074a <Write_HalfByte>
 8000898:	2101      	movs	r1, #1
 800089a:	6878      	ldr	r0, [r7, #4]
 800089c:	f7ff ff8c 	bl	80007b8 <EN_SET>
 80008a0:	200a      	movs	r0, #10
 80008a2:	f7ff ff45 	bl	8000730 <usDelay>
 80008a6:	2100      	movs	r1, #0
 80008a8:	6878      	ldr	r0, [r7, #4]
 80008aa:	f7ff ff85 	bl	80007b8 <EN_SET>
 80008ae:	2064      	movs	r0, #100	; 0x64
 80008b0:	f7ff ff3e 	bl	8000730 <usDelay>
 80008b4:	bf00      	nop
 80008b6:	3708      	adds	r7, #8
 80008b8:	46bd      	mov	sp, r7
 80008ba:	bd80      	pop	{r7, pc}

080008bc <Alcd_Init>:
 80008bc:	b580      	push	{r7, lr}
 80008be:	b084      	sub	sp, #16
 80008c0:	af00      	add	r7, sp, #0
 80008c2:	6078      	str	r0, [r7, #4]
 80008c4:	460b      	mov	r3, r1
 80008c6:	70fb      	strb	r3, [r7, #3]
 80008c8:	4613      	mov	r3, r2
 80008ca:	70bb      	strb	r3, [r7, #2]
 80008cc:	f7ff fedc 	bl	8000688 <DWT_Delay_Init>
 80008d0:	6878      	ldr	r0, [r7, #4]
 80008d2:	f7ff ff83 	bl	80007dc <Alcd_Init_GPIO>
 80008d6:	687b      	ldr	r3, [r7, #4]
 80008d8:	2200      	movs	r2, #0
 80008da:	769a      	strb	r2, [r3, #26]
 80008dc:	687b      	ldr	r3, [r7, #4]
 80008de:	2240      	movs	r2, #64	; 0x40
 80008e0:	76da      	strb	r2, [r3, #27]
 80008e2:	687b      	ldr	r3, [r7, #4]
 80008e4:	78ba      	ldrb	r2, [r7, #2]
 80008e6:	771a      	strb	r2, [r3, #28]
 80008e8:	78bb      	ldrb	r3, [r7, #2]
 80008ea:	3340      	adds	r3, #64	; 0x40
 80008ec:	b2da      	uxtb	r2, r3
 80008ee:	687b      	ldr	r3, [r7, #4]
 80008f0:	775a      	strb	r2, [r3, #29]
 80008f2:	2100      	movs	r1, #0
 80008f4:	6878      	ldr	r0, [r7, #4]
 80008f6:	f7ff ff4d 	bl	8000794 <RS_SET>
 80008fa:	2100      	movs	r1, #0
 80008fc:	6878      	ldr	r0, [r7, #4]
 80008fe:	f7ff ff5b 	bl	80007b8 <EN_SET>
 8000902:	f24c 3050 	movw	r0, #50000	; 0xc350
 8000906:	f7ff ff13 	bl	8000730 <usDelay>
 800090a:	2300      	movs	r3, #0
 800090c:	73fb      	strb	r3, [r7, #15]
 800090e:	e018      	b.n	8000942 <Alcd_Init+0x86>
 8000910:	2103      	movs	r1, #3
 8000912:	6878      	ldr	r0, [r7, #4]
 8000914:	f7ff ff19 	bl	800074a <Write_HalfByte>
 8000918:	2101      	movs	r1, #1
 800091a:	6878      	ldr	r0, [r7, #4]
 800091c:	f7ff ff4c 	bl	80007b8 <EN_SET>
 8000920:	200a      	movs	r0, #10
 8000922:	f7ff ff05 	bl	8000730 <usDelay>
 8000926:	2100      	movs	r1, #0
 8000928:	6878      	ldr	r0, [r7, #4]
 800092a:	f7ff ff45 	bl	80007b8 <EN_SET>
 800092e:	2064      	movs	r0, #100	; 0x64
 8000930:	f7ff fefe 	bl	8000730 <usDelay>
 8000934:	f241 1094 	movw	r0, #4500	; 0x1194
 8000938:	f7ff fefa 	bl	8000730 <usDelay>
 800093c:	7bfb      	ldrb	r3, [r7, #15]
 800093e:	3301      	adds	r3, #1
 8000940:	73fb      	strb	r3, [r7, #15]
 8000942:	7bfb      	ldrb	r3, [r7, #15]
 8000944:	2b01      	cmp	r3, #1
 8000946:	d9e3      	bls.n	8000910 <Alcd_Init+0x54>
 8000948:	2103      	movs	r1, #3
 800094a:	6878      	ldr	r0, [r7, #4]
 800094c:	f7ff fefd 	bl	800074a <Write_HalfByte>
 8000950:	2101      	movs	r1, #1
 8000952:	6878      	ldr	r0, [r7, #4]
 8000954:	f7ff ff30 	bl	80007b8 <EN_SET>
 8000958:	200a      	movs	r0, #10
 800095a:	f7ff fee9 	bl	8000730 <usDelay>
 800095e:	2100      	movs	r1, #0
 8000960:	6878      	ldr	r0, [r7, #4]
 8000962:	f7ff ff29 	bl	80007b8 <EN_SET>
 8000966:	2064      	movs	r0, #100	; 0x64
 8000968:	f7ff fee2 	bl	8000730 <usDelay>
 800096c:	2096      	movs	r0, #150	; 0x96
 800096e:	f7ff fedf 	bl	8000730 <usDelay>
 8000972:	2102      	movs	r1, #2
 8000974:	6878      	ldr	r0, [r7, #4]
 8000976:	f7ff fee8 	bl	800074a <Write_HalfByte>
 800097a:	2101      	movs	r1, #1
 800097c:	6878      	ldr	r0, [r7, #4]
 800097e:	f7ff ff1b 	bl	80007b8 <EN_SET>
 8000982:	200a      	movs	r0, #10
 8000984:	f7ff fed4 	bl	8000730 <usDelay>
 8000988:	2100      	movs	r1, #0
 800098a:	6878      	ldr	r0, [r7, #4]
 800098c:	f7ff ff14 	bl	80007b8 <EN_SET>
 8000990:	2064      	movs	r0, #100	; 0x64
 8000992:	f7ff fecd 	bl	8000730 <usDelay>
 8000996:	2228      	movs	r2, #40	; 0x28
 8000998:	2100      	movs	r1, #0
 800099a:	6878      	ldr	r0, [r7, #4]
 800099c:	f7ff ff55 	bl	800084a <Alcd_SendByte>
 80009a0:	2300      	movs	r3, #0
 80009a2:	2200      	movs	r2, #0
 80009a4:	2101      	movs	r1, #1
 80009a6:	6878      	ldr	r0, [r7, #4]
 80009a8:	f000 f86d 	bl	8000a86 <Alcd_Display_Control>
 80009ac:	6878      	ldr	r0, [r7, #4]
 80009ae:	f000 f859 	bl	8000a64 <Alcd_Clear>
 80009b2:	bf00      	nop
 80009b4:	3710      	adds	r7, #16
 80009b6:	46bd      	mov	sp, r7
 80009b8:	bd80      	pop	{r7, pc}

080009ba <Alcd_CursorAt>:
 80009ba:	b580      	push	{r7, lr}
 80009bc:	b082      	sub	sp, #8
 80009be:	af00      	add	r7, sp, #0
 80009c0:	6078      	str	r0, [r7, #4]
 80009c2:	460b      	mov	r3, r1
 80009c4:	70fb      	strb	r3, [r7, #3]
 80009c6:	4613      	mov	r3, r2
 80009c8:	70bb      	strb	r3, [r7, #2]
 80009ca:	78fb      	ldrb	r3, [r7, #3]
 80009cc:	687a      	ldr	r2, [r7, #4]
 80009ce:	4413      	add	r3, r2
 80009d0:	7e9a      	ldrb	r2, [r3, #26]
 80009d2:	78bb      	ldrb	r3, [r7, #2]
 80009d4:	4413      	add	r3, r2
 80009d6:	b2db      	uxtb	r3, r3
 80009d8:	b25b      	sxtb	r3, r3
 80009da:	f063 037f 	orn	r3, r3, #127	; 0x7f
 80009de:	b25b      	sxtb	r3, r3
 80009e0:	b2db      	uxtb	r3, r3
 80009e2:	461a      	mov	r2, r3
 80009e4:	2100      	movs	r1, #0
 80009e6:	6878      	ldr	r0, [r7, #4]
 80009e8:	f7ff ff2f 	bl	800084a <Alcd_SendByte>
 80009ec:	bf00      	nop
 80009ee:	3708      	adds	r7, #8
 80009f0:	46bd      	mov	sp, r7
 80009f2:	bd80      	pop	{r7, pc}

080009f4 <Alcd_Put_n>:
 80009f4:	b580      	push	{r7, lr}
 80009f6:	b086      	sub	sp, #24
 80009f8:	af00      	add	r7, sp, #0
 80009fa:	60f8      	str	r0, [r7, #12]
 80009fc:	60b9      	str	r1, [r7, #8]
 80009fe:	4613      	mov	r3, r2
 8000a00:	71fb      	strb	r3, [r7, #7]
 8000a02:	2300      	movs	r3, #0
 8000a04:	75fb      	strb	r3, [r7, #23]
 8000a06:	e00b      	b.n	8000a20 <Alcd_Put_n+0x2c>
 8000a08:	68bb      	ldr	r3, [r7, #8]
 8000a0a:	1c5a      	adds	r2, r3, #1
 8000a0c:	60ba      	str	r2, [r7, #8]
 8000a0e:	781b      	ldrb	r3, [r3, #0]
 8000a10:	461a      	mov	r2, r3
 8000a12:	2101      	movs	r1, #1
 8000a14:	68f8      	ldr	r0, [r7, #12]
 8000a16:	f7ff ff18 	bl	800084a <Alcd_SendByte>
 8000a1a:	7dfb      	ldrb	r3, [r7, #23]
 8000a1c:	3301      	adds	r3, #1
 8000a1e:	75fb      	strb	r3, [r7, #23]
 8000a20:	7dfa      	ldrb	r2, [r7, #23]
 8000a22:	79fb      	ldrb	r3, [r7, #7]
 8000a24:	429a      	cmp	r2, r3
 8000a26:	d3ef      	bcc.n	8000a08 <Alcd_Put_n+0x14>
 8000a28:	bf00      	nop
 8000a2a:	bf00      	nop
 8000a2c:	3718      	adds	r7, #24
 8000a2e:	46bd      	mov	sp, r7
 8000a30:	bd80      	pop	{r7, pc}

08000a32 <Alcd_PutAt_n>:
 8000a32:	b580      	push	{r7, lr}
 8000a34:	b084      	sub	sp, #16
 8000a36:	af00      	add	r7, sp, #0
 8000a38:	60f8      	str	r0, [r7, #12]
 8000a3a:	607b      	str	r3, [r7, #4]
 8000a3c:	460b      	mov	r3, r1
 8000a3e:	72fb      	strb	r3, [r7, #11]
 8000a40:	4613      	mov	r3, r2
 8000a42:	72bb      	strb	r3, [r7, #10]
 8000a44:	7aba      	ldrb	r2, [r7, #10]
 8000a46:	7afb      	ldrb	r3, [r7, #11]
 8000a48:	4619      	mov	r1, r3
 8000a4a:	68f8      	ldr	r0, [r7, #12]
 8000a4c:	f7ff ffb5 	bl	80009ba <Alcd_CursorAt>
 8000a50:	7e3b      	ldrb	r3, [r7, #24]
 8000a52:	461a      	mov	r2, r3
 8000a54:	6879      	ldr	r1, [r7, #4]
 8000a56:	68f8      	ldr	r0, [r7, #12]
 8000a58:	f7ff ffcc 	bl	80009f4 <Alcd_Put_n>
 8000a5c:	bf00      	nop
 8000a5e:	3710      	adds	r7, #16
 8000a60:	46bd      	mov	sp, r7
 8000a62:	bd80      	pop	{r7, pc}

08000a64 <Alcd_Clear>:
 8000a64:	b580      	push	{r7, lr}
 8000a66:	b082      	sub	sp, #8
 8000a68:	af00      	add	r7, sp, #0
 8000a6a:	6078      	str	r0, [r7, #4]
 8000a6c:	2201      	movs	r2, #1
 8000a6e:	2100      	movs	r1, #0
 8000a70:	6878      	ldr	r0, [r7, #4]
 8000a72:	f7ff feea 	bl	800084a <Alcd_SendByte>
 8000a76:	f44f 60fa 	mov.w	r0, #2000	; 0x7d0
 8000a7a:	f7ff fe59 	bl	8000730 <usDelay>
 8000a7e:	bf00      	nop
 8000a80:	3708      	adds	r7, #8
 8000a82:	46bd      	mov	sp, r7
 8000a84:	bd80      	pop	{r7, pc}

08000a86 <Alcd_Display_Control>:
 8000a86:	b580      	push	{r7, lr}
 8000a88:	b082      	sub	sp, #8
 8000a8a:	af00      	add	r7, sp, #0
 8000a8c:	6078      	str	r0, [r7, #4]
 8000a8e:	4608      	mov	r0, r1
 8000a90:	4611      	mov	r1, r2
 8000a92:	461a      	mov	r2, r3
 8000a94:	4603      	mov	r3, r0
 8000a96:	70fb      	strb	r3, [r7, #3]
 8000a98:	460b      	mov	r3, r1
 8000a9a:	70bb      	strb	r3, [r7, #2]
 8000a9c:	4613      	mov	r3, r2
 8000a9e:	707b      	strb	r3, [r7, #1]
 8000aa0:	687b      	ldr	r3, [r7, #4]
 8000aa2:	2200      	movs	r2, #0
 8000aa4:	779a      	strb	r2, [r3, #30]
 8000aa6:	78fb      	ldrb	r3, [r7, #3]
 8000aa8:	2b00      	cmp	r3, #0
 8000aaa:	d006      	beq.n	8000aba <Alcd_Display_Control+0x34>
 8000aac:	687b      	ldr	r3, [r7, #4]
 8000aae:	7f9b      	ldrb	r3, [r3, #30]
 8000ab0:	f043 0304 	orr.w	r3, r3, #4
 8000ab4:	b2da      	uxtb	r2, r3
 8000ab6:	687b      	ldr	r3, [r7, #4]
 8000ab8:	779a      	strb	r2, [r3, #30]
 8000aba:	78bb      	ldrb	r3, [r7, #2]
 8000abc:	2b00      	cmp	r3, #0
 8000abe:	d006      	beq.n	8000ace <Alcd_Display_Control+0x48>
 8000ac0:	687b      	ldr	r3, [r7, #4]
 8000ac2:	7f9b      	ldrb	r3, [r3, #30]
 8000ac4:	f043 0302 	orr.w	r3, r3, #2
 8000ac8:	b2da      	uxtb	r2, r3
 8000aca:	687b      	ldr	r3, [r7, #4]
 8000acc:	779a      	strb	r2, [r3, #30]
 8000ace:	787b      	ldrb	r3, [r7, #1]
 8000ad0:	2b00      	cmp	r3, #0
 8000ad2:	d006      	beq.n	8000ae2 <Alcd_Display_Control+0x5c>
 8000ad4:	687b      	ldr	r3, [r7, #4]
 8000ad6:	7f9b      	ldrb	r3, [r3, #30]
 8000ad8:	f043 0301 	orr.w	r3, r3, #1
 8000adc:	b2da      	uxtb	r2, r3
 8000ade:	687b      	ldr	r3, [r7, #4]
 8000ae0:	779a      	strb	r2, [r3, #30]
 8000ae2:	687b      	ldr	r3, [r7, #4]
 8000ae4:	7f9b      	ldrb	r3, [r3, #30]
 8000ae6:	f043 0304 	orr.w	r3, r3, #4
 8000aea:	b2da      	uxtb	r2, r3
 8000aec:	687b      	ldr	r3, [r7, #4]
 8000aee:	779a      	strb	r2, [r3, #30]
 8000af0:	687b      	ldr	r3, [r7, #4]
 8000af2:	7f9b      	ldrb	r3, [r3, #30]
 8000af4:	f043 0308 	orr.w	r3, r3, #8
 8000af8:	b2db      	uxtb	r3, r3
 8000afa:	461a      	mov	r2, r3
 8000afc:	2100      	movs	r1, #0
 8000afe:	6878      	ldr	r0, [r7, #4]
 8000b00:	f7ff fea3 	bl	800084a <Alcd_SendByte>
 8000b04:	bf00      	nop
 8000b06:	3708      	adds	r7, #8
 8000b08:	46bd      	mov	sp, r7
 8000b0a:	bd80      	pop	{r7, pc}

08000b0c <Str_Len>:
 8000b0c:	b480      	push	{r7}
 8000b0e:	b085      	sub	sp, #20
 8000b10:	af00      	add	r7, sp, #0
 8000b12:	6078      	str	r0, [r7, #4]
 8000b14:	2300      	movs	r3, #0
 8000b16:	60fb      	str	r3, [r7, #12]
 8000b18:	e002      	b.n	8000b20 <Str_Len+0x14>
 8000b1a:	68fb      	ldr	r3, [r7, #12]
 8000b1c:	3301      	adds	r3, #1
 8000b1e:	60fb      	str	r3, [r7, #12]
 8000b20:	687b      	ldr	r3, [r7, #4]
 8000b22:	1c5a      	adds	r2, r3, #1
 8000b24:	607a      	str	r2, [r7, #4]
 8000b26:	781b      	ldrb	r3, [r3, #0]
 8000b28:	2b00      	cmp	r3, #0
 8000b2a:	d1f6      	bne.n	8000b1a <Str_Len+0xe>
 8000b2c:	68fb      	ldr	r3, [r7, #12]
 8000b2e:	4618      	mov	r0, r3
 8000b30:	3714      	adds	r7, #20
 8000b32:	46bd      	mov	sp, r7
 8000b34:	bc80      	pop	{r7}
 8000b36:	4770      	bx	lr

08000b38 <Hardware_intialize>:
 8000b38:	b580      	push	{r7, lr}
 8000b3a:	b08a      	sub	sp, #40	; 0x28
 8000b3c:	af00      	add	r7, sp, #0
 8000b3e:	6078      	str	r0, [r7, #4]
 8000b40:	f107 030c 	add.w	r3, r7, #12
 8000b44:	2200      	movs	r2, #0
 8000b46:	601a      	str	r2, [r3, #0]
 8000b48:	605a      	str	r2, [r3, #4]
 8000b4a:	609a      	str	r2, [r3, #8]
 8000b4c:	60da      	str	r2, [r3, #12]
 8000b4e:	2301      	movs	r3, #1
 8000b50:	613b      	str	r3, [r7, #16]
 8000b52:	2302      	movs	r3, #2
 8000b54:	61bb      	str	r3, [r7, #24]
 8000b56:	2300      	movs	r3, #0
 8000b58:	627b      	str	r3, [r7, #36]	; 0x24
 8000b5a:	2300      	movs	r3, #0
 8000b5c:	623b      	str	r3, [r7, #32]
 8000b5e:	e00e      	b.n	8000b7e <Hardware_intialize+0x46>
 8000b60:	687b      	ldr	r3, [r7, #4]
 8000b62:	7a1b      	ldrb	r3, [r3, #8]
 8000b64:	461a      	mov	r2, r3
 8000b66:	6a3b      	ldr	r3, [r7, #32]
 8000b68:	4413      	add	r3, r2
 8000b6a:	2201      	movs	r2, #1
 8000b6c:	fa02 f303 	lsl.w	r3, r2, r3
 8000b70:	461a      	mov	r2, r3
 8000b72:	6a7b      	ldr	r3, [r7, #36]	; 0x24
 8000b74:	4313      	orrs	r3, r2
 8000b76:	627b      	str	r3, [r7, #36]	; 0x24
 8000b78:	6a3b      	ldr	r3, [r7, #32]
 8000b7a:	3301      	adds	r3, #1
 8000b7c:	623b      	str	r3, [r7, #32]
 8000b7e:	687b      	ldr	r3, [r7, #4]
 8000b80:	781b      	ldrb	r3, [r3, #0]
 8000b82:	461a      	mov	r2, r3
 8000b84:	6a3b      	ldr	r3, [r7, #32]
 8000b86:	4293      	cmp	r3, r2
 8000b88:	dbea      	blt.n	8000b60 <Hardware_intialize+0x28>
 8000b8a:	6a7b      	ldr	r3, [r7, #36]	; 0x24
 8000b8c:	60fb      	str	r3, [r7, #12]
 8000b8e:	687b      	ldr	r3, [r7, #4]
 8000b90:	685b      	ldr	r3, [r3, #4]
 8000b92:	f107 020c 	add.w	r2, r7, #12
 8000b96:	4611      	mov	r1, r2
 8000b98:	4618      	mov	r0, r3
 8000b9a:	f000 fa41 	bl	8001020 <HAL_GPIO_Init>
 8000b9e:	687b      	ldr	r3, [r7, #4]
 8000ba0:	6a7a      	ldr	r2, [r7, #36]	; 0x24
 8000ba2:	619a      	str	r2, [r3, #24]
 8000ba4:	2300      	movs	r3, #0
 8000ba6:	613b      	str	r3, [r7, #16]
 8000ba8:	2302      	movs	r3, #2
 8000baa:	617b      	str	r3, [r7, #20]
 8000bac:	2300      	movs	r3, #0
 8000bae:	627b      	str	r3, [r7, #36]	; 0x24
 8000bb0:	2300      	movs	r3, #0
 8000bb2:	61fb      	str	r3, [r7, #28]
 8000bb4:	e00e      	b.n	8000bd4 <Hardware_intialize+0x9c>
 8000bb6:	687b      	ldr	r3, [r7, #4]
 8000bb8:	7c1b      	ldrb	r3, [r3, #16]
 8000bba:	461a      	mov	r2, r3
 8000bbc:	69fb      	ldr	r3, [r7, #28]
 8000bbe:	4413      	add	r3, r2
 8000bc0:	2201      	movs	r2, #1
 8000bc2:	fa02 f303 	lsl.w	r3, r2, r3
 8000bc6:	461a      	mov	r2, r3
 8000bc8:	6a7b      	ldr	r3, [r7, #36]	; 0x24
 8000bca:	4313      	orrs	r3, r2
 8000bcc:	627b      	str	r3, [r7, #36]	; 0x24
 8000bce:	69fb      	ldr	r3, [r7, #28]
 8000bd0:	3301      	adds	r3, #1
 8000bd2:	61fb      	str	r3, [r7, #28]
 8000bd4:	687b      	ldr	r3, [r7, #4]
 8000bd6:	785b      	ldrb	r3, [r3, #1]
 8000bd8:	461a      	mov	r2, r3
 8000bda:	69fb      	ldr	r3, [r7, #28]
 8000bdc:	4293      	cmp	r3, r2
 8000bde:	dbea      	blt.n	8000bb6 <Hardware_intialize+0x7e>
 8000be0:	6a7b      	ldr	r3, [r7, #36]	; 0x24
 8000be2:	60fb      	str	r3, [r7, #12]
 8000be4:	687b      	ldr	r3, [r7, #4]
 8000be6:	68db      	ldr	r3, [r3, #12]
 8000be8:	f107 020c 	add.w	r2, r7, #12
 8000bec:	4611      	mov	r1, r2
 8000bee:	4618      	mov	r0, r3
 8000bf0:	f000 fa16 	bl	8001020 <HAL_GPIO_Init>
 8000bf4:	687b      	ldr	r3, [r7, #4]
 8000bf6:	6a7a      	ldr	r2, [r7, #36]	; 0x24
 8000bf8:	615a      	str	r2, [r3, #20]
 8000bfa:	bf00      	nop
 8000bfc:	3728      	adds	r7, #40	; 0x28
 8000bfe:	46bd      	mov	sp, r7
 8000c00:	bd80      	pop	{r7, pc}

08000c02 <Hardware_Generate_Delay>:
 8000c02:	b580      	push	{r7, lr}
 8000c04:	b082      	sub	sp, #8
 8000c06:	af00      	add	r7, sp, #0
 8000c08:	4603      	mov	r3, r0
 8000c0a:	80fb      	strh	r3, [r7, #6]
 8000c0c:	88fb      	ldrh	r3, [r7, #6]
 8000c0e:	4618      	mov	r0, r3
 8000c10:	f000 f8fe 	bl	8000e10 <HAL_Delay>
 8000c14:	bf00      	nop
 8000c16:	3708      	adds	r7, #8
 8000c18:	46bd      	mov	sp, r7
 8000c1a:	bd80      	pop	{r7, pc}

08000c1c <Hardware_Get_Inputs>:
 8000c1c:	b480      	push	{r7}
 8000c1e:	b085      	sub	sp, #20
 8000c20:	af00      	add	r7, sp, #0
 8000c22:	6078      	str	r0, [r7, #4]
 8000c24:	687b      	ldr	r3, [r7, #4]
 8000c26:	68db      	ldr	r3, [r3, #12]
 8000c28:	689a      	ldr	r2, [r3, #8]
 8000c2a:	687b      	ldr	r3, [r7, #4]
 8000c2c:	695b      	ldr	r3, [r3, #20]
 8000c2e:	4013      	ands	r3, r2
 8000c30:	60fb      	str	r3, [r7, #12]
 8000c32:	687b      	ldr	r3, [r7, #4]
 8000c34:	7c1b      	ldrb	r3, [r3, #16]
 8000c36:	461a      	mov	r2, r3
 8000c38:	68fb      	ldr	r3, [r7, #12]
 8000c3a:	40d3      	lsrs	r3, r2
 8000c3c:	60fb      	str	r3, [r7, #12]
 8000c3e:	68fb      	ldr	r3, [r7, #12]
 8000c40:	b2db      	uxtb	r3, r3
 8000c42:	4618      	mov	r0, r3
 8000c44:	3714      	adds	r7, #20
 8000c46:	46bd      	mov	sp, r7
 8000c48:	bc80      	pop	{r7}
 8000c4a:	4770      	bx	lr

08000c4c <Hardware_Set_outputs>:
 8000c4c:	b480      	push	{r7}
 8000c4e:	b083      	sub	sp, #12
 8000c50:	af00      	add	r7, sp, #0
 8000c52:	6078      	str	r0, [r7, #4]
 8000c54:	460b      	mov	r3, r1
 8000c56:	70fb      	strb	r3, [r7, #3]
 8000c58:	687b      	ldr	r3, [r7, #4]
 8000c5a:	685b      	ldr	r3, [r3, #4]
 8000c5c:	68d9      	ldr	r1, [r3, #12]
 8000c5e:	687b      	ldr	r3, [r7, #4]
 8000c60:	699b      	ldr	r3, [r3, #24]
 8000c62:	43da      	mvns	r2, r3
 8000c64:	687b      	ldr	r3, [r7, #4]
 8000c66:	685b      	ldr	r3, [r3, #4]
 8000c68:	400a      	ands	r2, r1
 8000c6a:	60da      	str	r2, [r3, #12]
 8000c6c:	687b      	ldr	r3, [r7, #4]
 8000c6e:	685b      	ldr	r3, [r3, #4]
 8000c70:	68d9      	ldr	r1, [r3, #12]
 8000c72:	78fb      	ldrb	r3, [r7, #3]
 8000c74:	687a      	ldr	r2, [r7, #4]
 8000c76:	7a12      	ldrb	r2, [r2, #8]
 8000c78:	fa03 f202 	lsl.w	r2, r3, r2
 8000c7c:	687b      	ldr	r3, [r7, #4]
 8000c7e:	685b      	ldr	r3, [r3, #4]
 8000c80:	430a      	orrs	r2, r1
 8000c82:	60da      	str	r2, [r3, #12]
 8000c84:	bf00      	nop
 8000c86:	370c      	adds	r7, #12
 8000c88:	46bd      	mov	sp, r7
 8000c8a:	bc80      	pop	{r7}
 8000c8c:	4770      	bx	lr

08000c8e <Keypad_Matrix_Init>:
 8000c8e:	b580      	push	{r7, lr}
 8000c90:	b082      	sub	sp, #8
 8000c92:	af00      	add	r7, sp, #0
 8000c94:	6078      	str	r0, [r7, #4]
 8000c96:	6878      	ldr	r0, [r7, #4]
 8000c98:	f7ff ff4e 	bl	8000b38 <Hardware_intialize>
 8000c9c:	2100      	movs	r1, #0
 8000c9e:	6878      	ldr	r0, [r7, #4]
 8000ca0:	f7ff ffd4 	bl	8000c4c <Hardware_Set_outputs>
 8000ca4:	bf00      	nop
 8000ca6:	3708      	adds	r7, #8
 8000ca8:	46bd      	mov	sp, r7
 8000caa:	bd80      	pop	{r7, pc}

08000cac <Keypad_Matrix_Refresh>:
 8000cac:	b580      	push	{r7, lr}
 8000cae:	b084      	sub	sp, #16
 8000cb0:	af00      	add	r7, sp, #0
 8000cb2:	6078      	str	r0, [r7, #4]
 8000cb4:	2301      	movs	r3, #1
 8000cb6:	73fb      	strb	r3, [r7, #15]
 8000cb8:	687b      	ldr	r3, [r7, #4]
 8000cba:	2200      	movs	r2, #0
 8000cbc:	709a      	strb	r2, [r3, #2]
 8000cbe:	2300      	movs	r3, #0
 8000cc0:	73bb      	strb	r3, [r7, #14]
 8000cc2:	e021      	b.n	8000d08 <Keypad_Matrix_Refresh+0x5c>
 8000cc4:	7bfb      	ldrb	r3, [r7, #15]
 8000cc6:	4619      	mov	r1, r3
 8000cc8:	6878      	ldr	r0, [r7, #4]
 8000cca:	f7ff ffbf 	bl	8000c4c <Hardware_Set_outputs>
 8000cce:	2001      	movs	r0, #1
 8000cd0:	f7ff ff97 	bl	8000c02 <Hardware_Generate_Delay>
 8000cd4:	6878      	ldr	r0, [r7, #4]
 8000cd6:	f7ff ffa1 	bl	8000c1c <Hardware_Get_Inputs>
 8000cda:	4603      	mov	r3, r0
 8000cdc:	4619      	mov	r1, r3
 8000cde:	7bbb      	ldrb	r3, [r7, #14]
 8000ce0:	687a      	ldr	r2, [r7, #4]
 8000ce2:	7852      	ldrb	r2, [r2, #1]
 8000ce4:	fb02 f303 	mul.w	r3, r2, r3
 8000ce8:	4099      	lsls	r1, r3
 8000cea:	687b      	ldr	r3, [r7, #4]
 8000cec:	789b      	ldrb	r3, [r3, #2]
 8000cee:	b25a      	sxtb	r2, r3
 8000cf0:	b24b      	sxtb	r3, r1
 8000cf2:	4313      	orrs	r3, r2
 8000cf4:	b25b      	sxtb	r3, r3
 8000cf6:	b2da      	uxtb	r2, r3
 8000cf8:	687b      	ldr	r3, [r7, #4]
 8000cfa:	709a      	strb	r2, [r3, #2]
 8000cfc:	7bfb      	ldrb	r3, [r7, #15]
 8000cfe:	005b      	lsls	r3, r3, #1
 8000d00:	73fb      	strb	r3, [r7, #15]
 8000d02:	7bbb      	ldrb	r3, [r7, #14]
 8000d04:	3301      	adds	r3, #1
 8000d06:	73bb      	strb	r3, [r7, #14]
 8000d08:	687b      	ldr	r3, [r7, #4]
 8000d0a:	781b      	ldrb	r3, [r3, #0]
 8000d0c:	7bba      	ldrb	r2, [r7, #14]
 8000d0e:	429a      	cmp	r2, r3
 8000d10:	d3d8      	bcc.n	8000cc4 <Keypad_Matrix_Refresh+0x18>
 8000d12:	bf00      	nop
 8000d14:	bf00      	nop
 8000d16:	3710      	adds	r7, #16
 8000d18:	46bd      	mov	sp, r7
 8000d1a:	bd80      	pop	{r7, pc}

08000d1c <Keypad_Matrix_Read_Key>:
 8000d1c:	b480      	push	{r7}
 8000d1e:	b083      	sub	sp, #12
 8000d20:	af00      	add	r7, sp, #0
 8000d22:	6078      	str	r0, [r7, #4]
 8000d24:	460b      	mov	r3, r1
 8000d26:	70fb      	strb	r3, [r7, #3]
 8000d28:	687b      	ldr	r3, [r7, #4]
 8000d2a:	789b      	ldrb	r3, [r3, #2]
 8000d2c:	461a      	mov	r2, r3
 8000d2e:	78fb      	ldrb	r3, [r7, #3]
 8000d30:	fa42 f303 	asr.w	r3, r2, r3
 8000d34:	f003 0301 	and.w	r3, r3, #1
 8000d38:	2b00      	cmp	r3, #0
 8000d3a:	d001      	beq.n	8000d40 <Keypad_Matrix_Read_Key+0x24>
 8000d3c:	2301      	movs	r3, #1
 8000d3e:	e000      	b.n	8000d42 <Keypad_Matrix_Read_Key+0x26>
 8000d40:	2300      	movs	r3, #0
 8000d42:	4618      	mov	r0, r3
 8000d44:	370c      	adds	r7, #12
 8000d46:	46bd      	mov	sp, r7
 8000d48:	bc80      	pop	{r7}
 8000d4a:	4770      	bx	lr

08000d4c <HAL_Init>:
 8000d4c:	b580      	push	{r7, lr}
 8000d4e:	af00      	add	r7, sp, #0
 8000d50:	4b08      	ldr	r3, [pc, #32]	; (8000d74 <HAL_Init+0x28>)
 8000d52:	681b      	ldr	r3, [r3, #0]
 8000d54:	4a07      	ldr	r2, [pc, #28]	; (8000d74 <HAL_Init+0x28>)
 8000d56:	f043 0310 	orr.w	r3, r3, #16
 8000d5a:	6013      	str	r3, [r2, #0]
 8000d5c:	2003      	movs	r0, #3
 8000d5e:	f000 f92b 	bl	8000fb8 <HAL_NVIC_SetPriorityGrouping>
 8000d62:	200f      	movs	r0, #15
 8000d64:	f000 f808 	bl	8000d78 <HAL_InitTick>
 8000d68:	f7ff fc08 	bl	800057c <HAL_MspInit>
 8000d6c:	2300      	movs	r3, #0
 8000d6e:	4618      	mov	r0, r3
 8000d70:	bd80      	pop	{r7, pc}
 8000d72:	bf00      	nop
 8000d74:	40022000 	.word	0x40022000

08000d78 <HAL_InitTick>:
 8000d78:	b580      	push	{r7, lr}
 8000d7a:	b082      	sub	sp, #8
 8000d7c:	af00      	add	r7, sp, #0
 8000d7e:	6078      	str	r0, [r7, #4]
 8000d80:	4b12      	ldr	r3, [pc, #72]	; (8000dcc <HAL_InitTick+0x54>)
 8000d82:	681a      	ldr	r2, [r3, #0]
 8000d84:	4b12      	ldr	r3, [pc, #72]	; (8000dd0 <HAL_InitTick+0x58>)
 8000d86:	781b      	ldrb	r3, [r3, #0]
 8000d88:	4619      	mov	r1, r3
 8000d8a:	f44f 737a 	mov.w	r3, #1000	; 0x3e8
 8000d8e:	fbb3 f3f1 	udiv	r3, r3, r1
 8000d92:	fbb2 f3f3 	udiv	r3, r2, r3
 8000d96:	4618      	mov	r0, r3
 8000d98:	f000 f935 	bl	8001006 <HAL_SYSTICK_Config>
 8000d9c:	4603      	mov	r3, r0
 8000d9e:	2b00      	cmp	r3, #0
 8000da0:	d001      	beq.n	8000da6 <HAL_InitTick+0x2e>
 8000da2:	2301      	movs	r3, #1
 8000da4:	e00e      	b.n	8000dc4 <HAL_InitTick+0x4c>
 8000da6:	687b      	ldr	r3, [r7, #4]
 8000da8:	2b0f      	cmp	r3, #15
 8000daa:	d80a      	bhi.n	8000dc2 <HAL_InitTick+0x4a>
 8000dac:	2200      	movs	r2, #0
 8000dae:	6879      	ldr	r1, [r7, #4]
 8000db0:	f04f 30ff 	mov.w	r0, #4294967295
 8000db4:	f000 f90b 	bl	8000fce <HAL_NVIC_SetPriority>
 8000db8:	4a06      	ldr	r2, [pc, #24]	; (8000dd4 <HAL_InitTick+0x5c>)
 8000dba:	687b      	ldr	r3, [r7, #4]
 8000dbc:	6013      	str	r3, [r2, #0]
 8000dbe:	2300      	movs	r3, #0
 8000dc0:	e000      	b.n	8000dc4 <HAL_InitTick+0x4c>
 8000dc2:	2301      	movs	r3, #1
 8000dc4:	4618      	mov	r0, r3
 8000dc6:	3708      	adds	r7, #8
 8000dc8:	46bd      	mov	sp, r7
 8000dca:	bd80      	pop	{r7, pc}
 8000dcc:	2000001c 	.word	0x2000001c
 8000dd0:	20000024 	.word	0x20000024
 8000dd4:	20000020 	.word	0x20000020

08000dd8 <HAL_IncTick>:
 8000dd8:	b480      	push	{r7}
 8000dda:	af00      	add	r7, sp, #0
 8000ddc:	4b05      	ldr	r3, [pc, #20]	; (8000df4 <HAL_IncTick+0x1c>)
 8000dde:	781b      	ldrb	r3, [r3, #0]
 8000de0:	461a      	mov	r2, r3
 8000de2:	4b05      	ldr	r3, [pc, #20]	; (8000df8 <HAL_IncTick+0x20>)
 8000de4:	681b      	ldr	r3, [r3, #0]
 8000de6:	4413      	add	r3, r2
 8000de8:	4a03      	ldr	r2, [pc, #12]	; (8000df8 <HAL_IncTick+0x20>)
 8000dea:	6013      	str	r3, [r2, #0]
 8000dec:	bf00      	nop
 8000dee:	46bd      	mov	sp, r7
 8000df0:	bc80      	pop	{r7}
 8000df2:	4770      	bx	lr
 8000df4:	20000024 	.word	0x20000024
 8000df8:	20000044 	.word	0x20000044

08000dfc <HAL_GetTick>:
 8000dfc:	b480      	push	{r7}
 8000dfe:	af00      	add	r7, sp, #0
 8000e00:	4b02      	ldr	r3, [pc, #8]	; (8000e0c <HAL_GetTick+0x10>)
 8000e02:	681b      	ldr	r3, [r3, #0]
 8000e04:	4618      	mov	r0, r3
 8000e06:	46bd      	mov	sp, r7
 8000e08:	bc80      	pop	{r7}
 8000e0a:	4770      	bx	lr
 8000e0c:	20000044 	.word	0x20000044

08000e10 <HAL_Delay>:
 8000e10:	b580      	push	{r7, lr}
 8000e12:	b084      	sub	sp, #16
 8000e14:	af00      	add	r7, sp, #0
 8000e16:	6078      	str	r0, [r7, #4]
 8000e18:	f7ff fff0 	bl	8000dfc <HAL_GetTick>
 8000e1c:	60b8      	str	r0, [r7, #8]
 8000e1e:	687b      	ldr	r3, [r7, #4]
 8000e20:	60fb      	str	r3, [r7, #12]
 8000e22:	68fb      	ldr	r3, [r7, #12]
 8000e24:	f1b3 3fff 	cmp.w	r3, #4294967295
 8000e28:	d005      	beq.n	8000e36 <HAL_Delay+0x26>
 8000e2a:	4b0a      	ldr	r3, [pc, #40]	; (8000e54 <HAL_Delay+0x44>)
 8000e2c:	781b      	ldrb	r3, [r3, #0]
 8000e2e:	461a      	mov	r2, r3
 8000e30:	68fb      	ldr	r3, [r7, #12]
 8000e32:	4413      	add	r3, r2
 8000e34:	60fb      	str	r3, [r7, #12]
 8000e36:	bf00      	nop
 8000e38:	f7ff ffe0 	bl	8000dfc <HAL_GetTick>
 8000e3c:	4602      	mov	r2, r0
 8000e3e:	68bb      	ldr	r3, [r7, #8]
 8000e40:	1ad3      	subs	r3, r2, r3
 8000e42:	68fa      	ldr	r2, [r7, #12]
 8000e44:	429a      	cmp	r2, r3
 8000e46:	d8f7      	bhi.n	8000e38 <HAL_Delay+0x28>
 8000e48:	bf00      	nop
 8000e4a:	bf00      	nop
 8000e4c:	3710      	adds	r7, #16
 8000e4e:	46bd      	mov	sp, r7
 8000e50:	bd80      	pop	{r7, pc}
 8000e52:	bf00      	nop
 8000e54:	20000024 	.word	0x20000024

08000e58 <__NVIC_SetPriorityGrouping>:
 8000e58:	b480      	push	{r7}
 8000e5a:	b085      	sub	sp, #20
 8000e5c:	af00      	add	r7, sp, #0
 8000e5e:	6078      	str	r0, [r7, #4]
 8000e60:	687b      	ldr	r3, [r7, #4]
 8000e62:	f003 0307 	and.w	r3, r3, #7
 8000e66:	60fb      	str	r3, [r7, #12]
 8000e68:	4b0c      	ldr	r3, [pc, #48]	; (8000e9c <__NVIC_SetPriorityGrouping+0x44>)
 8000e6a:	68db      	ldr	r3, [r3, #12]
 8000e6c:	60bb      	str	r3, [r7, #8]
 8000e6e:	68ba      	ldr	r2, [r7, #8]
 8000e70:	f64f 03ff 	movw	r3, #63743	; 0xf8ff
 8000e74:	4013      	ands	r3, r2
 8000e76:	60bb      	str	r3, [r7, #8]
 8000e78:	68fb      	ldr	r3, [r7, #12]
 8000e7a:	021a      	lsls	r2, r3, #8
 8000e7c:	68bb      	ldr	r3, [r7, #8]
 8000e7e:	4313      	orrs	r3, r2
 8000e80:	f043 63bf 	orr.w	r3, r3, #100139008	; 0x5f80000
 8000e84:	f443 3300 	orr.w	r3, r3, #131072	; 0x20000
 8000e88:	60bb      	str	r3, [r7, #8]
 8000e8a:	4a04      	ldr	r2, [pc, #16]	; (8000e9c <__NVIC_SetPriorityGrouping+0x44>)
 8000e8c:	68bb      	ldr	r3, [r7, #8]
 8000e8e:	60d3      	str	r3, [r2, #12]
 8000e90:	bf00      	nop
 8000e92:	3714      	adds	r7, #20
 8000e94:	46bd      	mov	sp, r7
 8000e96:	bc80      	pop	{r7}
 8000e98:	4770      	bx	lr
 8000e9a:	bf00      	nop
 8000e9c:	e000ed00 	.word	0xe000ed00

08000ea0 <__NVIC_GetPriorityGrouping>:
 8000ea0:	b480      	push	{r7}
 8000ea2:	af00      	add	r7, sp, #0
 8000ea4:	4b04      	ldr	r3, [pc, #16]	; (8000eb8 <__NVIC_GetPriorityGrouping+0x18>)
 8000ea6:	68db      	ldr	r3, [r3, #12]
 8000ea8:	0a1b      	lsrs	r3, r3, #8
 8000eaa:	f003 0307 	and.w	r3, r3, #7
 8000eae:	4618      	mov	r0, r3
 8000eb0:	46bd      	mov	sp, r7
 8000eb2:	bc80      	pop	{r7}
 8000eb4:	4770      	bx	lr
 8000eb6:	bf00      	nop
 8000eb8:	e000ed00 	.word	0xe000ed00

08000ebc <__NVIC_SetPriority>:
 8000ebc:	b480      	push	{r7}
 8000ebe:	b083      	sub	sp, #12
 8000ec0:	af00      	add	r7, sp, #0
 8000ec2:	4603      	mov	r3, r0
 8000ec4:	6039      	str	r1, [r7, #0]
 8000ec6:	71fb      	strb	r3, [r7, #7]
 8000ec8:	f997 3007 	ldrsb.w	r3, [r7, #7]
 8000ecc:	2b00      	cmp	r3, #0
 8000ece:	db0a      	blt.n	8000ee6 <__NVIC_SetPriority+0x2a>
 8000ed0:	683b      	ldr	r3, [r7, #0]
 8000ed2:	b2da      	uxtb	r2, r3
 8000ed4:	490c      	ldr	r1, [pc, #48]	; (8000f08 <__NVIC_SetPriority+0x4c>)
 8000ed6:	f997 3007 	ldrsb.w	r3, [r7, #7]
 8000eda:	0112      	lsls	r2, r2, #4
 8000edc:	b2d2      	uxtb	r2, r2
 8000ede:	440b      	add	r3, r1
 8000ee0:	f883 2300 	strb.w	r2, [r3, #768]	; 0x300
 8000ee4:	e00a      	b.n	8000efc <__NVIC_SetPriority+0x40>
 8000ee6:	683b      	ldr	r3, [r7, #0]
 8000ee8:	b2da      	uxtb	r2, r3
 8000eea:	4908      	ldr	r1, [pc, #32]	; (8000f0c <__NVIC_SetPriority+0x50>)
 8000eec:	79fb      	ldrb	r3, [r7, #7]
 8000eee:	f003 030f 	and.w	r3, r3, #15
 8000ef2:	3b04      	subs	r3, #4
 8000ef4:	0112      	lsls	r2, r2, #4
 8000ef6:	b2d2      	uxtb	r2, r2
 8000ef8:	440b      	add	r3, r1
 8000efa:	761a      	strb	r2, [r3, #24]
 8000efc:	bf00      	nop
 8000efe:	370c      	adds	r7, #12
 8000f00:	46bd      	mov	sp, r7
 8000f02:	bc80      	pop	{r7}
 8000f04:	4770      	bx	lr
 8000f06:	bf00      	nop
 8000f08:	e000e100 	.word	0xe000e100
 8000f0c:	e000ed00 	.word	0xe000ed00

08000f10 <NVIC_EncodePriority>:
 8000f10:	b480      	push	{r7}
 8000f12:	b089      	sub	sp, #36	; 0x24
 8000f14:	af00      	add	r7, sp, #0
 8000f16:	60f8      	str	r0, [r7, #12]
 8000f18:	60b9      	str	r1, [r7, #8]
 8000f1a:	607a      	str	r2, [r7, #4]
 8000f1c:	68fb      	ldr	r3, [r7, #12]
 8000f1e:	f003 0307 	and.w	r3, r3, #7
 8000f22:	61fb      	str	r3, [r7, #28]
 8000f24:	69fb      	ldr	r3, [r7, #28]
 8000f26:	f1c3 0307 	rsb	r3, r3, #7
 8000f2a:	2b04      	cmp	r3, #4
 8000f2c:	bf28      	it	cs
 8000f2e:	2304      	movcs	r3, #4
 8000f30:	61bb      	str	r3, [r7, #24]
 8000f32:	69fb      	ldr	r3, [r7, #28]
 8000f34:	3304      	adds	r3, #4
 8000f36:	2b06      	cmp	r3, #6
 8000f38:	d902      	bls.n	8000f40 <NVIC_EncodePriority+0x30>
 8000f3a:	69fb      	ldr	r3, [r7, #28]
 8000f3c:	3b03      	subs	r3, #3
 8000f3e:	e000      	b.n	8000f42 <NVIC_EncodePriority+0x32>
 8000f40:	2300      	movs	r3, #0
 8000f42:	617b      	str	r3, [r7, #20]
 8000f44:	f04f 32ff 	mov.w	r2, #4294967295
 8000f48:	69bb      	ldr	r3, [r7, #24]
 8000f4a:	fa02 f303 	lsl.w	r3, r2, r3
 8000f4e:	43da      	mvns	r2, r3
 8000f50:	68bb      	ldr	r3, [r7, #8]
 8000f52:	401a      	ands	r2, r3
 8000f54:	697b      	ldr	r3, [r7, #20]
 8000f56:	409a      	lsls	r2, r3
 8000f58:	f04f 31ff 	mov.w	r1, #4294967295
 8000f5c:	697b      	ldr	r3, [r7, #20]
 8000f5e:	fa01 f303 	lsl.w	r3, r1, r3
 8000f62:	43d9      	mvns	r1, r3
 8000f64:	687b      	ldr	r3, [r7, #4]
 8000f66:	400b      	ands	r3, r1
 8000f68:	4313      	orrs	r3, r2
 8000f6a:	4618      	mov	r0, r3
 8000f6c:	3724      	adds	r7, #36	; 0x24
 8000f6e:	46bd      	mov	sp, r7
 8000f70:	bc80      	pop	{r7}
 8000f72:	4770      	bx	lr

08000f74 <SysTick_Config>:
 8000f74:	b580      	push	{r7, lr}
 8000f76:	b082      	sub	sp, #8
 8000f78:	af00      	add	r7, sp, #0
 8000f7a:	6078      	str	r0, [r7, #4]
 8000f7c:	687b      	ldr	r3, [r7, #4]
 8000f7e:	3b01      	subs	r3, #1
 8000f80:	f1b3 7f80 	cmp.w	r3, #16777216	; 0x1000000
 8000f84:	d301      	bcc.n	8000f8a <SysTick_Config+0x16>
 8000f86:	2301      	movs	r3, #1
 8000f88:	e00f      	b.n	8000faa <SysTick_Config+0x36>
 8000f8a:	4a0a      	ldr	r2, [pc, #40]	; (8000fb4 <SysTick_Config+0x40>)
 8000f8c:	687b      	ldr	r3, [r7, #4]
 8000f8e:	3b01      	subs	r3, #1
 8000f90:	6053      	str	r3, [r2, #4]
 8000f92:	210f      	movs	r1, #15
 8000f94:	f04f 30ff 	mov.w	r0, #4294967295
 8000f98:	f7ff ff90 	bl	8000ebc <__NVIC_SetPriority>
 8000f9c:	4b05      	ldr	r3, [pc, #20]	; (8000fb4 <SysTick_Config+0x40>)
 8000f9e:	2200      	movs	r2, #0
 8000fa0:	609a      	str	r2, [r3, #8]
 8000fa2:	4b04      	ldr	r3, [pc, #16]	; (8000fb4 <SysTick_Config+0x40>)
 8000fa4:	2207      	movs	r2, #7
 8000fa6:	601a      	str	r2, [r3, #0]
 8000fa8:	2300      	movs	r3, #0
 8000faa:	4618      	mov	r0, r3
 8000fac:	3708      	adds	r7, #8
 8000fae:	46bd      	mov	sp, r7
 8000fb0:	bd80      	pop	{r7, pc}
 8000fb2:	bf00      	nop
 8000fb4:	e000e010 	.word	0xe000e010

08000fb8 <HAL_NVIC_SetPriorityGrouping>:
 8000fb8:	b580      	push	{r7, lr}
 8000fba:	b082      	sub	sp, #8
 8000fbc:	af00      	add	r7, sp, #0
 8000fbe:	6078      	str	r0, [r7, #4]
 8000fc0:	6878      	ldr	r0, [r7, #4]
 8000fc2:	f7ff ff49 	bl	8000e58 <__NVIC_SetPriorityGrouping>
 8000fc6:	bf00      	nop
 8000fc8:	3708      	adds	r7, #8
 8000fca:	46bd      	mov	sp, r7
 8000fcc:	bd80      	pop	{r7, pc}

08000fce <HAL_NVIC_SetPriority>:
 8000fce:	b580      	push	{r7, lr}
 8000fd0:	b086      	sub	sp, #24
 8000fd2:	af00      	add	r7, sp, #0
 8000fd4:	4603      	mov	r3, r0
 8000fd6:	60b9      	str	r1, [r7, #8]
 8000fd8:	607a      	str	r2, [r7, #4]
 8000fda:	73fb      	strb	r3, [r7, #15]
 8000fdc:	2300      	movs	r3, #0
 8000fde:	617b      	str	r3, [r7, #20]
 8000fe0:	f7ff ff5e 	bl	8000ea0 <__NVIC_GetPriorityGrouping>
 8000fe4:	6178      	str	r0, [r7, #20]
 8000fe6:	687a      	ldr	r2, [r7, #4]
 8000fe8:	68b9      	ldr	r1, [r7, #8]
 8000fea:	6978      	ldr	r0, [r7, #20]
 8000fec:	f7ff ff90 	bl	8000f10 <NVIC_EncodePriority>
 8000ff0:	4602      	mov	r2, r0
 8000ff2:	f997 300f 	ldrsb.w	r3, [r7, #15]
 8000ff6:	4611      	mov	r1, r2
 8000ff8:	4618      	mov	r0, r3
 8000ffa:	f7ff ff5f 	bl	8000ebc <__NVIC_SetPriority>
 8000ffe:	bf00      	nop
 8001000:	3718      	adds	r7, #24
 8001002:	46bd      	mov	sp, r7
 8001004:	bd80      	pop	{r7, pc}

08001006 <HAL_SYSTICK_Config>:
 8001006:	b580      	push	{r7, lr}
 8001008:	b082      	sub	sp, #8
 800100a:	af00      	add	r7, sp, #0
 800100c:	6078      	str	r0, [r7, #4]
 800100e:	6878      	ldr	r0, [r7, #4]
 8001010:	f7ff ffb0 	bl	8000f74 <SysTick_Config>
 8001014:	4603      	mov	r3, r0
 8001016:	4618      	mov	r0, r3
 8001018:	3708      	adds	r7, #8
 800101a:	46bd      	mov	sp, r7
 800101c:	bd80      	pop	{r7, pc}
	...

08001020 <HAL_GPIO_Init>:
 8001020:	b480      	push	{r7}
 8001022:	b08b      	sub	sp, #44	; 0x2c
 8001024:	af00      	add	r7, sp, #0
 8001026:	6078      	str	r0, [r7, #4]
 8001028:	6039      	str	r1, [r7, #0]
 800102a:	2300      	movs	r3, #0
 800102c:	627b      	str	r3, [r7, #36]	; 0x24
 800102e:	2300      	movs	r3, #0
 8001030:	623b      	str	r3, [r7, #32]
 8001032:	e169      	b.n	8001308 <HAL_GPIO_Init+0x2e8>
 8001034:	2201      	movs	r2, #1
 8001036:	6a7b      	ldr	r3, [r7, #36]	; 0x24
 8001038:	fa02 f303 	lsl.w	r3, r2, r3
 800103c:	61fb      	str	r3, [r7, #28]
 800103e:	683b      	ldr	r3, [r7, #0]
 8001040:	681b      	ldr	r3, [r3, #0]
 8001042:	69fa      	ldr	r2, [r7, #28]
 8001044:	4013      	ands	r3, r2
 8001046:	61bb      	str	r3, [r7, #24]
 8001048:	69ba      	ldr	r2, [r7, #24]
 800104a:	69fb      	ldr	r3, [r7, #28]
 800104c:	429a      	cmp	r2, r3
 800104e:	f040 8158 	bne.w	8001302 <HAL_GPIO_Init+0x2e2>
 8001052:	683b      	ldr	r3, [r7, #0]
 8001054:	685b      	ldr	r3, [r3, #4]
 8001056:	4a9a      	ldr	r2, [pc, #616]	; (80012c0 <HAL_GPIO_Init+0x2a0>)
 8001058:	4293      	cmp	r3, r2
 800105a:	d05e      	beq.n	800111a <HAL_GPIO_Init+0xfa>
 800105c:	4a98      	ldr	r2, [pc, #608]	; (80012c0 <HAL_GPIO_Init+0x2a0>)
 800105e:	4293      	cmp	r3, r2
 8001060:	d875      	bhi.n	800114e <HAL_GPIO_Init+0x12e>
 8001062:	4a98      	ldr	r2, [pc, #608]	; (80012c4 <HAL_GPIO_Init+0x2a4>)
 8001064:	4293      	cmp	r3, r2
 8001066:	d058      	beq.n	800111a <HAL_GPIO_Init+0xfa>
 8001068:	4a96      	ldr	r2, [pc, #600]	; (80012c4 <HAL_GPIO_Init+0x2a4>)
 800106a:	4293      	cmp	r3, r2
 800106c:	d86f      	bhi.n	800114e <HAL_GPIO_Init+0x12e>
 800106e:	4a96      	ldr	r2, [pc, #600]	; (80012c8 <HAL_GPIO_Init+0x2a8>)
 8001070:	4293      	cmp	r3, r2
 8001072:	d052      	beq.n	800111a <HAL_GPIO_Init+0xfa>
 8001074:	4a94      	ldr	r2, [pc, #592]	; (80012c8 <HAL_GPIO_Init+0x2a8>)
 8001076:	4293      	cmp	r3, r2
 8001078:	d869      	bhi.n	800114e <HAL_GPIO_Init+0x12e>
 800107a:	4a94      	ldr	r2, [pc, #592]	; (80012cc <HAL_GPIO_Init+0x2ac>)
 800107c:	4293      	cmp	r3, r2
 800107e:	d04c      	beq.n	800111a <HAL_GPIO_Init+0xfa>
 8001080:	4a92      	ldr	r2, [pc, #584]	; (80012cc <HAL_GPIO_Init+0x2ac>)
 8001082:	4293      	cmp	r3, r2
 8001084:	d863      	bhi.n	800114e <HAL_GPIO_Init+0x12e>
 8001086:	4a92      	ldr	r2, [pc, #584]	; (80012d0 <HAL_GPIO_Init+0x2b0>)
 8001088:	4293      	cmp	r3, r2
 800108a:	d046      	beq.n	800111a <HAL_GPIO_Init+0xfa>
 800108c:	4a90      	ldr	r2, [pc, #576]	; (80012d0 <HAL_GPIO_Init+0x2b0>)
 800108e:	4293      	cmp	r3, r2
 8001090:	d85d      	bhi.n	800114e <HAL_GPIO_Init+0x12e>
 8001092:	2b12      	cmp	r3, #18
 8001094:	d82a      	bhi.n	80010ec <HAL_GPIO_Init+0xcc>
 8001096:	2b12      	cmp	r3, #18
 8001098:	d859      	bhi.n	800114e <HAL_GPIO_Init+0x12e>
 800109a:	a201      	add	r2, pc, #4	; (adr r2, 80010a0 <HAL_GPIO_Init+0x80>)
 800109c:	f852 f023 	ldr.w	pc, [r2, r3, lsl #2]
 80010a0:	0800111b 	.word	0x0800111b
 80010a4:	080010f5 	.word	0x080010f5
 80010a8:	08001107 	.word	0x08001107
 80010ac:	08001149 	.word	0x08001149
 80010b0:	0800114f 	.word	0x0800114f
 80010b4:	0800114f 	.word	0x0800114f
 80010b8:	0800114f 	.word	0x0800114f
 80010bc:	0800114f 	.word	0x0800114f
 80010c0:	0800114f 	.word	0x0800114f
 80010c4:	0800114f 	.word	0x0800114f
 80010c8:	0800114f 	.word	0x0800114f
 80010cc:	0800114f 	.word	0x0800114f
 80010d0:	0800114f 	.word	0x0800114f
 80010d4:	0800114f 	.word	0x0800114f
 80010d8:	0800114f 	.word	0x0800114f
 80010dc:	0800114f 	.word	0x0800114f
 80010e0:	0800114f 	.word	0x0800114f
 80010e4:	080010fd 	.word	0x080010fd
 80010e8:	08001111 	.word	0x08001111
 80010ec:	4a79      	ldr	r2, [pc, #484]	; (80012d4 <HAL_GPIO_Init+0x2b4>)
 80010ee:	4293      	cmp	r3, r2
 80010f0:	d013      	beq.n	800111a <HAL_GPIO_Init+0xfa>
 80010f2:	e02c      	b.n	800114e <HAL_GPIO_Init+0x12e>
 80010f4:	683b      	ldr	r3, [r7, #0]
 80010f6:	68db      	ldr	r3, [r3, #12]
 80010f8:	623b      	str	r3, [r7, #32]
 80010fa:	e029      	b.n	8001150 <HAL_GPIO_Init+0x130>
 80010fc:	683b      	ldr	r3, [r7, #0]
 80010fe:	68db      	ldr	r3, [r3, #12]
 8001100:	3304      	adds	r3, #4
 8001102:	623b      	str	r3, [r7, #32]
 8001104:	e024      	b.n	8001150 <HAL_GPIO_Init+0x130>
 8001106:	683b      	ldr	r3, [r7, #0]
 8001108:	68db      	ldr	r3, [r3, #12]
 800110a:	3308      	adds	r3, #8
 800110c:	623b      	str	r3, [r7, #32]
 800110e:	e01f      	b.n	8001150 <HAL_GPIO_Init+0x130>
 8001110:	683b      	ldr	r3, [r7, #0]
 8001112:	68db      	ldr	r3, [r3, #12]
 8001114:	330c      	adds	r3, #12
 8001116:	623b      	str	r3, [r7, #32]
 8001118:	e01a      	b.n	8001150 <HAL_GPIO_Init+0x130>
 800111a:	683b      	ldr	r3, [r7, #0]
 800111c:	689b      	ldr	r3, [r3, #8]
 800111e:	2b00      	cmp	r3, #0
 8001120:	d102      	bne.n	8001128 <HAL_GPIO_Init+0x108>
 8001122:	2304      	movs	r3, #4
 8001124:	623b      	str	r3, [r7, #32]
 8001126:	e013      	b.n	8001150 <HAL_GPIO_Init+0x130>
 8001128:	683b      	ldr	r3, [r7, #0]
 800112a:	689b      	ldr	r3, [r3, #8]
 800112c:	2b01      	cmp	r3, #1
 800112e:	d105      	bne.n	800113c <HAL_GPIO_Init+0x11c>
 8001130:	2308      	movs	r3, #8
 8001132:	623b      	str	r3, [r7, #32]
 8001134:	687b      	ldr	r3, [r7, #4]
 8001136:	69fa      	ldr	r2, [r7, #28]
 8001138:	611a      	str	r2, [r3, #16]
 800113a:	e009      	b.n	8001150 <HAL_GPIO_Init+0x130>
 800113c:	2308      	movs	r3, #8
 800113e:	623b      	str	r3, [r7, #32]
 8001140:	687b      	ldr	r3, [r7, #4]
 8001142:	69fa      	ldr	r2, [r7, #28]
 8001144:	615a      	str	r2, [r3, #20]
 8001146:	e003      	b.n	8001150 <HAL_GPIO_Init+0x130>
 8001148:	2300      	movs	r3, #0
 800114a:	623b      	str	r3, [r7, #32]
 800114c:	e000      	b.n	8001150 <HAL_GPIO_Init+0x130>
 800114e:	bf00      	nop
 8001150:	69bb      	ldr	r3, [r7, #24]
 8001152:	2bff      	cmp	r3, #255	; 0xff
 8001154:	d801      	bhi.n	800115a <HAL_GPIO_Init+0x13a>
 8001156:	687b      	ldr	r3, [r7, #4]
 8001158:	e001      	b.n	800115e <HAL_GPIO_Init+0x13e>
 800115a:	687b      	ldr	r3, [r7, #4]
 800115c:	3304      	adds	r3, #4
 800115e:	617b      	str	r3, [r7, #20]
 8001160:	69bb      	ldr	r3, [r7, #24]
 8001162:	2bff      	cmp	r3, #255	; 0xff
 8001164:	d802      	bhi.n	800116c <HAL_GPIO_Init+0x14c>
 8001166:	6a7b      	ldr	r3, [r7, #36]	; 0x24
 8001168:	009b      	lsls	r3, r3, #2
 800116a:	e002      	b.n	8001172 <HAL_GPIO_Init+0x152>
 800116c:	6a7b      	ldr	r3, [r7, #36]	; 0x24
 800116e:	3b08      	subs	r3, #8
 8001170:	009b      	lsls	r3, r3, #2
 8001172:	613b      	str	r3, [r7, #16]
 8001174:	697b      	ldr	r3, [r7, #20]
 8001176:	681a      	ldr	r2, [r3, #0]
 8001178:	210f      	movs	r1, #15
 800117a:	693b      	ldr	r3, [r7, #16]
 800117c:	fa01 f303 	lsl.w	r3, r1, r3
 8001180:	43db      	mvns	r3, r3
 8001182:	401a      	ands	r2, r3
 8001184:	6a39      	ldr	r1, [r7, #32]
 8001186:	693b      	ldr	r3, [r7, #16]
 8001188:	fa01 f303 	lsl.w	r3, r1, r3
 800118c:	431a      	orrs	r2, r3
 800118e:	697b      	ldr	r3, [r7, #20]
 8001190:	601a      	str	r2, [r3, #0]
 8001192:	683b      	ldr	r3, [r7, #0]
 8001194:	685b      	ldr	r3, [r3, #4]
 8001196:	f003 5380 	and.w	r3, r3, #268435456	; 0x10000000
 800119a:	2b00      	cmp	r3, #0
 800119c:	f000 80b1 	beq.w	8001302 <HAL_GPIO_Init+0x2e2>
 80011a0:	4b4d      	ldr	r3, [pc, #308]	; (80012d8 <HAL_GPIO_Init+0x2b8>)
 80011a2:	699b      	ldr	r3, [r3, #24]
 80011a4:	4a4c      	ldr	r2, [pc, #304]	; (80012d8 <HAL_GPIO_Init+0x2b8>)
 80011a6:	f043 0301 	orr.w	r3, r3, #1
 80011aa:	6193      	str	r3, [r2, #24]
 80011ac:	4b4a      	ldr	r3, [pc, #296]	; (80012d8 <HAL_GPIO_Init+0x2b8>)
 80011ae:	699b      	ldr	r3, [r3, #24]
 80011b0:	f003 0301 	and.w	r3, r3, #1
 80011b4:	60bb      	str	r3, [r7, #8]
 80011b6:	68bb      	ldr	r3, [r7, #8]
 80011b8:	4a48      	ldr	r2, [pc, #288]	; (80012dc <HAL_GPIO_Init+0x2bc>)
 80011ba:	6a7b      	ldr	r3, [r7, #36]	; 0x24
 80011bc:	089b      	lsrs	r3, r3, #2
 80011be:	3302      	adds	r3, #2
 80011c0:	f852 3023 	ldr.w	r3, [r2, r3, lsl #2]
 80011c4:	60fb      	str	r3, [r7, #12]
 80011c6:	6a7b      	ldr	r3, [r7, #36]	; 0x24
 80011c8:	f003 0303 	and.w	r3, r3, #3
 80011cc:	009b      	lsls	r3, r3, #2
 80011ce:	220f      	movs	r2, #15
 80011d0:	fa02 f303 	lsl.w	r3, r2, r3
 80011d4:	43db      	mvns	r3, r3
 80011d6:	68fa      	ldr	r2, [r7, #12]
 80011d8:	4013      	ands	r3, r2
 80011da:	60fb      	str	r3, [r7, #12]
 80011dc:	687b      	ldr	r3, [r7, #4]
 80011de:	4a40      	ldr	r2, [pc, #256]	; (80012e0 <HAL_GPIO_Init+0x2c0>)
 80011e0:	4293      	cmp	r3, r2
 80011e2:	d013      	beq.n	800120c <HAL_GPIO_Init+0x1ec>
 80011e4:	687b      	ldr	r3, [r7, #4]
 80011e6:	4a3f      	ldr	r2, [pc, #252]	; (80012e4 <HAL_GPIO_Init+0x2c4>)
 80011e8:	4293      	cmp	r3, r2
 80011ea:	d00d      	beq.n	8001208 <HAL_GPIO_Init+0x1e8>
 80011ec:	687b      	ldr	r3, [r7, #4]
 80011ee:	4a3e      	ldr	r2, [pc, #248]	; (80012e8 <HAL_GPIO_Init+0x2c8>)
 80011f0:	4293      	cmp	r3, r2
 80011f2:	d007      	beq.n	8001204 <HAL_GPIO_Init+0x1e4>
 80011f4:	687b      	ldr	r3, [r7, #4]
 80011f6:	4a3d      	ldr	r2, [pc, #244]	; (80012ec <HAL_GPIO_Init+0x2cc>)
 80011f8:	4293      	cmp	r3, r2
 80011fa:	d101      	bne.n	8001200 <HAL_GPIO_Init+0x1e0>
 80011fc:	2303      	movs	r3, #3
 80011fe:	e006      	b.n	800120e <HAL_GPIO_Init+0x1ee>
 8001200:	2304      	movs	r3, #4
 8001202:	e004      	b.n	800120e <HAL_GPIO_Init+0x1ee>
 8001204:	2302      	movs	r3, #2
 8001206:	e002      	b.n	800120e <HAL_GPIO_Init+0x1ee>
 8001208:	2301      	movs	r3, #1
 800120a:	e000      	b.n	800120e <HAL_GPIO_Init+0x1ee>
 800120c:	2300      	movs	r3, #0
 800120e:	6a7a      	ldr	r2, [r7, #36]	; 0x24
 8001210:	f002 0203 	and.w	r2, r2, #3
 8001214:	0092      	lsls	r2, r2, #2
 8001216:	4093      	lsls	r3, r2
 8001218:	68fa      	ldr	r2, [r7, #12]
 800121a:	4313      	orrs	r3, r2
 800121c:	60fb      	str	r3, [r7, #12]
 800121e:	492f      	ldr	r1, [pc, #188]	; (80012dc <HAL_GPIO_Init+0x2bc>)
 8001220:	6a7b      	ldr	r3, [r7, #36]	; 0x24
 8001222:	089b      	lsrs	r3, r3, #2
 8001224:	3302      	adds	r3, #2
 8001226:	68fa      	ldr	r2, [r7, #12]
 8001228:	f841 2023 	str.w	r2, [r1, r3, lsl #2]
 800122c:	683b      	ldr	r3, [r7, #0]
 800122e:	685b      	ldr	r3, [r3, #4]
 8001230:	f403 1380 	and.w	r3, r3, #1048576	; 0x100000
 8001234:	2b00      	cmp	r3, #0
 8001236:	d006      	beq.n	8001246 <HAL_GPIO_Init+0x226>
 8001238:	4b2d      	ldr	r3, [pc, #180]	; (80012f0 <HAL_GPIO_Init+0x2d0>)
 800123a:	689a      	ldr	r2, [r3, #8]
 800123c:	492c      	ldr	r1, [pc, #176]	; (80012f0 <HAL_GPIO_Init+0x2d0>)
 800123e:	69bb      	ldr	r3, [r7, #24]
 8001240:	4313      	orrs	r3, r2
 8001242:	608b      	str	r3, [r1, #8]
 8001244:	e006      	b.n	8001254 <HAL_GPIO_Init+0x234>
 8001246:	4b2a      	ldr	r3, [pc, #168]	; (80012f0 <HAL_GPIO_Init+0x2d0>)
 8001248:	689a      	ldr	r2, [r3, #8]
 800124a:	69bb      	ldr	r3, [r7, #24]
 800124c:	43db      	mvns	r3, r3
 800124e:	4928      	ldr	r1, [pc, #160]	; (80012f0 <HAL_GPIO_Init+0x2d0>)
 8001250:	4013      	ands	r3, r2
 8001252:	608b      	str	r3, [r1, #8]
 8001254:	683b      	ldr	r3, [r7, #0]
 8001256:	685b      	ldr	r3, [r3, #4]
 8001258:	f403 1300 	and.w	r3, r3, #2097152	; 0x200000
 800125c:	2b00      	cmp	r3, #0
 800125e:	d006      	beq.n	800126e <HAL_GPIO_Init+0x24e>
 8001260:	4b23      	ldr	r3, [pc, #140]	; (80012f0 <HAL_GPIO_Init+0x2d0>)
 8001262:	68da      	ldr	r2, [r3, #12]
 8001264:	4922      	ldr	r1, [pc, #136]	; (80012f0 <HAL_GPIO_Init+0x2d0>)
 8001266:	69bb      	ldr	r3, [r7, #24]
 8001268:	4313      	orrs	r3, r2
 800126a:	60cb      	str	r3, [r1, #12]
 800126c:	e006      	b.n	800127c <HAL_GPIO_Init+0x25c>
 800126e:	4b20      	ldr	r3, [pc, #128]	; (80012f0 <HAL_GPIO_Init+0x2d0>)
 8001270:	68da      	ldr	r2, [r3, #12]
 8001272:	69bb      	ldr	r3, [r7, #24]
 8001274:	43db      	mvns	r3, r3
 8001276:	491e      	ldr	r1, [pc, #120]	; (80012f0 <HAL_GPIO_Init+0x2d0>)
 8001278:	4013      	ands	r3, r2
 800127a:	60cb      	str	r3, [r1, #12]
 800127c:	683b      	ldr	r3, [r7, #0]
 800127e:	685b      	ldr	r3, [r3, #4]
 8001280:	f403 3300 	and.w	r3, r3, #131072	; 0x20000
 8001284:	2b00      	cmp	r3, #0
 8001286:	d006      	beq.n	8001296 <HAL_GPIO_Init+0x276>
 8001288:	4b19      	ldr	r3, [pc, #100]	; (80012f0 <HAL_GPIO_Init+0x2d0>)
 800128a:	685a      	ldr	r2, [r3, #4]
 800128c:	4918      	ldr	r1, [pc, #96]	; (80012f0 <HAL_GPIO_Init+0x2d0>)
 800128e:	69bb      	ldr	r3, [r7, #24]
 8001290:	4313      	orrs	r3, r2
 8001292:	604b      	str	r3, [r1, #4]
 8001294:	e006      	b.n	80012a4 <HAL_GPIO_Init+0x284>
 8001296:	4b16      	ldr	r3, [pc, #88]	; (80012f0 <HAL_GPIO_Init+0x2d0>)
 8001298:	685a      	ldr	r2, [r3, #4]
 800129a:	69bb      	ldr	r3, [r7, #24]
 800129c:	43db      	mvns	r3, r3
 800129e:	4914      	ldr	r1, [pc, #80]	; (80012f0 <HAL_GPIO_Init+0x2d0>)
 80012a0:	4013      	ands	r3, r2
 80012a2:	604b      	str	r3, [r1, #4]
 80012a4:	683b      	ldr	r3, [r7, #0]
 80012a6:	685b      	ldr	r3, [r3, #4]
 80012a8:	f403 3380 	and.w	r3, r3, #65536	; 0x10000
 80012ac:	2b00      	cmp	r3, #0
 80012ae:	d021      	beq.n	80012f4 <HAL_GPIO_Init+0x2d4>
 80012b0:	4b0f      	ldr	r3, [pc, #60]	; (80012f0 <HAL_GPIO_Init+0x2d0>)
 80012b2:	681a      	ldr	r2, [r3, #0]
 80012b4:	490e      	ldr	r1, [pc, #56]	; (80012f0 <HAL_GPIO_Init+0x2d0>)
 80012b6:	69bb      	ldr	r3, [r7, #24]
 80012b8:	4313      	orrs	r3, r2
 80012ba:	600b      	str	r3, [r1, #0]
 80012bc:	e021      	b.n	8001302 <HAL_GPIO_Init+0x2e2>
 80012be:	bf00      	nop
 80012c0:	10320000 	.word	0x10320000
 80012c4:	10310000 	.word	0x10310000
 80012c8:	10220000 	.word	0x10220000
 80012cc:	10210000 	.word	0x10210000
 80012d0:	10120000 	.word	0x10120000
 80012d4:	10110000 	.word	0x10110000
 80012d8:	40021000 	.word	0x40021000
 80012dc:	40010000 	.word	0x40010000
 80012e0:	40010800 	.word	0x40010800
 80012e4:	40010c00 	.word	0x40010c00
 80012e8:	40011000 	.word	0x40011000
 80012ec:	40011400 	.word	0x40011400
 80012f0:	40010400 	.word	0x40010400
 80012f4:	4b0b      	ldr	r3, [pc, #44]	; (8001324 <HAL_GPIO_Init+0x304>)
 80012f6:	681a      	ldr	r2, [r3, #0]
 80012f8:	69bb      	ldr	r3, [r7, #24]
 80012fa:	43db      	mvns	r3, r3
 80012fc:	4909      	ldr	r1, [pc, #36]	; (8001324 <HAL_GPIO_Init+0x304>)
 80012fe:	4013      	ands	r3, r2
 8001300:	600b      	str	r3, [r1, #0]
 8001302:	6a7b      	ldr	r3, [r7, #36]	; 0x24
 8001304:	3301      	adds	r3, #1
 8001306:	627b      	str	r3, [r7, #36]	; 0x24
 8001308:	683b      	ldr	r3, [r7, #0]
 800130a:	681a      	ldr	r2, [r3, #0]
 800130c:	6a7b      	ldr	r3, [r7, #36]	; 0x24
 800130e:	fa22 f303 	lsr.w	r3, r2, r3
 8001312:	2b00      	cmp	r3, #0
 8001314:	f47f ae8e 	bne.w	8001034 <HAL_GPIO_Init+0x14>
 8001318:	bf00      	nop
 800131a:	bf00      	nop
 800131c:	372c      	adds	r7, #44	; 0x2c
 800131e:	46bd      	mov	sp, r7
 8001320:	bc80      	pop	{r7}
 8001322:	4770      	bx	lr
 8001324:	40010400 	.word	0x40010400

08001328 <HAL_GPIO_WritePin>:
 8001328:	b480      	push	{r7}
 800132a:	b083      	sub	sp, #12
 800132c:	af00      	add	r7, sp, #0
 800132e:	6078      	str	r0, [r7, #4]
 8001330:	460b      	mov	r3, r1
 8001332:	807b      	strh	r3, [r7, #2]
 8001334:	4613      	mov	r3, r2
 8001336:	707b      	strb	r3, [r7, #1]
 8001338:	787b      	ldrb	r3, [r7, #1]
 800133a:	2b00      	cmp	r3, #0
 800133c:	d003      	beq.n	8001346 <HAL_GPIO_WritePin+0x1e>
 800133e:	887a      	ldrh	r2, [r7, #2]
 8001340:	687b      	ldr	r3, [r7, #4]
 8001342:	611a      	str	r2, [r3, #16]
 8001344:	e003      	b.n	800134e <HAL_GPIO_WritePin+0x26>
 8001346:	887b      	ldrh	r3, [r7, #2]
 8001348:	041a      	lsls	r2, r3, #16
 800134a:	687b      	ldr	r3, [r7, #4]
 800134c:	611a      	str	r2, [r3, #16]
 800134e:	bf00      	nop
 8001350:	370c      	adds	r7, #12
 8001352:	46bd      	mov	sp, r7
 8001354:	bc80      	pop	{r7}
 8001356:	4770      	bx	lr

08001358 <HAL_RCC_OscConfig>:
 8001358:	b580      	push	{r7, lr}
 800135a:	b086      	sub	sp, #24
 800135c:	af00      	add	r7, sp, #0
 800135e:	6078      	str	r0, [r7, #4]
 8001360:	687b      	ldr	r3, [r7, #4]
 8001362:	2b00      	cmp	r3, #0
 8001364:	d101      	bne.n	800136a <HAL_RCC_OscConfig+0x12>
 8001366:	2301      	movs	r3, #1
 8001368:	e272      	b.n	8001850 <HAL_RCC_OscConfig+0x4f8>
 800136a:	687b      	ldr	r3, [r7, #4]
 800136c:	681b      	ldr	r3, [r3, #0]
 800136e:	f003 0301 	and.w	r3, r3, #1
 8001372:	2b00      	cmp	r3, #0
 8001374:	f000 8087 	beq.w	8001486 <HAL_RCC_OscConfig+0x12e>
 8001378:	4b92      	ldr	r3, [pc, #584]	; (80015c4 <HAL_RCC_OscConfig+0x26c>)
 800137a:	685b      	ldr	r3, [r3, #4]
 800137c:	f003 030c 	and.w	r3, r3, #12
 8001380:	2b04      	cmp	r3, #4
 8001382:	d00c      	beq.n	800139e <HAL_RCC_OscConfig+0x46>
 8001384:	4b8f      	ldr	r3, [pc, #572]	; (80015c4 <HAL_RCC_OscConfig+0x26c>)
 8001386:	685b      	ldr	r3, [r3, #4]
 8001388:	f003 030c 	and.w	r3, r3, #12
 800138c:	2b08      	cmp	r3, #8
 800138e:	d112      	bne.n	80013b6 <HAL_RCC_OscConfig+0x5e>
 8001390:	4b8c      	ldr	r3, [pc, #560]	; (80015c4 <HAL_RCC_OscConfig+0x26c>)
 8001392:	685b      	ldr	r3, [r3, #4]
 8001394:	f403 3380 	and.w	r3, r3, #65536	; 0x10000
 8001398:	f5b3 3f80 	cmp.w	r3, #65536	; 0x10000
 800139c:	d10b      	bne.n	80013b6 <HAL_RCC_OscConfig+0x5e>
 800139e:	4b89      	ldr	r3, [pc, #548]	; (80015c4 <HAL_RCC_OscConfig+0x26c>)
 80013a0:	681b      	ldr	r3, [r3, #0]
 80013a2:	f403 3300 	and.w	r3, r3, #131072	; 0x20000
 80013a6:	2b00      	cmp	r3, #0
 80013a8:	d06c      	beq.n	8001484 <HAL_RCC_OscConfig+0x12c>
 80013aa:	687b      	ldr	r3, [r7, #4]
 80013ac:	685b      	ldr	r3, [r3, #4]
 80013ae:	2b00      	cmp	r3, #0
 80013b0:	d168      	bne.n	8001484 <HAL_RCC_OscConfig+0x12c>
 80013b2:	2301      	movs	r3, #1
 80013b4:	e24c      	b.n	8001850 <HAL_RCC_OscConfig+0x4f8>
 80013b6:	687b      	ldr	r3, [r7, #4]
 80013b8:	685b      	ldr	r3, [r3, #4]
 80013ba:	f5b3 3f80 	cmp.w	r3, #65536	; 0x10000
 80013be:	d106      	bne.n	80013ce <HAL_RCC_OscConfig+0x76>
 80013c0:	4b80      	ldr	r3, [pc, #512]	; (80015c4 <HAL_RCC_OscConfig+0x26c>)
 80013c2:	681b      	ldr	r3, [r3, #0]
 80013c4:	4a7f      	ldr	r2, [pc, #508]	; (80015c4 <HAL_RCC_OscConfig+0x26c>)
 80013c6:	f443 3380 	orr.w	r3, r3, #65536	; 0x10000
 80013ca:	6013      	str	r3, [r2, #0]
 80013cc:	e02e      	b.n	800142c <HAL_RCC_OscConfig+0xd4>
 80013ce:	687b      	ldr	r3, [r7, #4]
 80013d0:	685b      	ldr	r3, [r3, #4]
 80013d2:	2b00      	cmp	r3, #0
 80013d4:	d10c      	bne.n	80013f0 <HAL_RCC_OscConfig+0x98>
 80013d6:	4b7b      	ldr	r3, [pc, #492]	; (80015c4 <HAL_RCC_OscConfig+0x26c>)
 80013d8:	681b      	ldr	r3, [r3, #0]
 80013da:	4a7a      	ldr	r2, [pc, #488]	; (80015c4 <HAL_RCC_OscConfig+0x26c>)
 80013dc:	f423 3380 	bic.w	r3, r3, #65536	; 0x10000
 80013e0:	6013      	str	r3, [r2, #0]
 80013e2:	4b78      	ldr	r3, [pc, #480]	; (80015c4 <HAL_RCC_OscConfig+0x26c>)
 80013e4:	681b      	ldr	r3, [r3, #0]
 80013e6:	4a77      	ldr	r2, [pc, #476]	; (80015c4 <HAL_RCC_OscConfig+0x26c>)
 80013e8:	f423 2380 	bic.w	r3, r3, #262144	; 0x40000
 80013ec:	6013      	str	r3, [r2, #0]
 80013ee:	e01d      	b.n	800142c <HAL_RCC_OscConfig+0xd4>
 80013f0:	687b      	ldr	r3, [r7, #4]
 80013f2:	685b      	ldr	r3, [r3, #4]
 80013f4:	f5b3 2fa0 	cmp.w	r3, #327680	; 0x50000
 80013f8:	d10c      	bne.n	8001414 <HAL_RCC_OscConfig+0xbc>
 80013fa:	4b72      	ldr	r3, [pc, #456]	; (80015c4 <HAL_RCC_OscConfig+0x26c>)
 80013fc:	681b      	ldr	r3, [r3, #0]
 80013fe:	4a71      	ldr	r2, [pc, #452]	; (80015c4 <HAL_RCC_OscConfig+0x26c>)
 8001400:	f443 2380 	orr.w	r3, r3, #262144	; 0x40000
 8001404:	6013      	str	r3, [r2, #0]
 8001406:	4b6f      	ldr	r3, [pc, #444]	; (80015c4 <HAL_RCC_OscConfig+0x26c>)
 8001408:	681b      	ldr	r3, [r3, #0]
 800140a:	4a6e      	ldr	r2, [pc, #440]	; (80015c4 <HAL_RCC_OscConfig+0x26c>)
 800140c:	f443 3380 	orr.w	r3, r3, #65536	; 0x10000
 8001410:	6013      	str	r3, [r2, #0]
 8001412:	e00b      	b.n	800142c <HAL_RCC_OscConfig+0xd4>
 8001414:	4b6b      	ldr	r3, [pc, #428]	; (80015c4 <HAL_RCC_OscConfig+0x26c>)
 8001416:	681b      	ldr	r3, [r3, #0]
 8001418:	4a6a      	ldr	r2, [pc, #424]	; (80015c4 <HAL_RCC_OscConfig+0x26c>)
 800141a:	f423 3380 	bic.w	r3, r3, #65536	; 0x10000
 800141e:	6013      	str	r3, [r2, #0]
 8001420:	4b68      	ldr	r3, [pc, #416]	; (80015c4 <HAL_RCC_OscConfig+0x26c>)
 8001422:	681b      	ldr	r3, [r3, #0]
 8001424:	4a67      	ldr	r2, [pc, #412]	; (80015c4 <HAL_RCC_OscConfig+0x26c>)
 8001426:	f423 2380 	bic.w	r3, r3, #262144	; 0x40000
 800142a:	6013      	str	r3, [r2, #0]
 800142c:	687b      	ldr	r3, [r7, #4]
 800142e:	685b      	ldr	r3, [r3, #4]
 8001430:	2b00      	cmp	r3, #0
 8001432:	d013      	beq.n	800145c <HAL_RCC_OscConfig+0x104>
 8001434:	f7ff fce2 	bl	8000dfc <HAL_GetTick>
 8001438:	6138      	str	r0, [r7, #16]
 800143a:	e008      	b.n	800144e <HAL_RCC_OscConfig+0xf6>
 800143c:	f7ff fcde 	bl	8000dfc <HAL_GetTick>
 8001440:	4602      	mov	r2, r0
 8001442:	693b      	ldr	r3, [r7, #16]
 8001444:	1ad3      	subs	r3, r2, r3
 8001446:	2b64      	cmp	r3, #100	; 0x64
 8001448:	d901      	bls.n	800144e <HAL_RCC_OscConfig+0xf6>
 800144a:	2303      	movs	r3, #3
 800144c:	e200      	b.n	8001850 <HAL_RCC_OscConfig+0x4f8>
 800144e:	4b5d      	ldr	r3, [pc, #372]	; (80015c4 <HAL_RCC_OscConfig+0x26c>)
 8001450:	681b      	ldr	r3, [r3, #0]
 8001452:	f403 3300 	and.w	r3, r3, #131072	; 0x20000
 8001456:	2b00      	cmp	r3, #0
 8001458:	d0f0      	beq.n	800143c <HAL_RCC_OscConfig+0xe4>
 800145a:	e014      	b.n	8001486 <HAL_RCC_OscConfig+0x12e>
 800145c:	f7ff fcce 	bl	8000dfc <HAL_GetTick>
 8001460:	6138      	str	r0, [r7, #16]
 8001462:	e008      	b.n	8001476 <HAL_RCC_OscConfig+0x11e>
 8001464:	f7ff fcca 	bl	8000dfc <HAL_GetTick>
 8001468:	4602      	mov	r2, r0
 800146a:	693b      	ldr	r3, [r7, #16]
 800146c:	1ad3      	subs	r3, r2, r3
 800146e:	2b64      	cmp	r3, #100	; 0x64
 8001470:	d901      	bls.n	8001476 <HAL_RCC_OscConfig+0x11e>
 8001472:	2303      	movs	r3, #3
 8001474:	e1ec      	b.n	8001850 <HAL_RCC_OscConfig+0x4f8>
 8001476:	4b53      	ldr	r3, [pc, #332]	; (80015c4 <HAL_RCC_OscConfig+0x26c>)
 8001478:	681b      	ldr	r3, [r3, #0]
 800147a:	f403 3300 	and.w	r3, r3, #131072	; 0x20000
 800147e:	2b00      	cmp	r3, #0
 8001480:	d1f0      	bne.n	8001464 <HAL_RCC_OscConfig+0x10c>
 8001482:	e000      	b.n	8001486 <HAL_RCC_OscConfig+0x12e>
 8001484:	bf00      	nop
 8001486:	687b      	ldr	r3, [r7, #4]
 8001488:	681b      	ldr	r3, [r3, #0]
 800148a:	f003 0302 	and.w	r3, r3, #2
 800148e:	2b00      	cmp	r3, #0
 8001490:	d063      	beq.n	800155a <HAL_RCC_OscConfig+0x202>
 8001492:	4b4c      	ldr	r3, [pc, #304]	; (80015c4 <HAL_RCC_OscConfig+0x26c>)
 8001494:	685b      	ldr	r3, [r3, #4]
 8001496:	f003 030c 	and.w	r3, r3, #12
 800149a:	2b00      	cmp	r3, #0
 800149c:	d00b      	beq.n	80014b6 <HAL_RCC_OscConfig+0x15e>
 800149e:	4b49      	ldr	r3, [pc, #292]	; (80015c4 <HAL_RCC_OscConfig+0x26c>)
 80014a0:	685b      	ldr	r3, [r3, #4]
 80014a2:	f003 030c 	and.w	r3, r3, #12
 80014a6:	2b08      	cmp	r3, #8
 80014a8:	d11c      	bne.n	80014e4 <HAL_RCC_OscConfig+0x18c>
 80014aa:	4b46      	ldr	r3, [pc, #280]	; (80015c4 <HAL_RCC_OscConfig+0x26c>)
 80014ac:	685b      	ldr	r3, [r3, #4]
 80014ae:	f403 3380 	and.w	r3, r3, #65536	; 0x10000
 80014b2:	2b00      	cmp	r3, #0
 80014b4:	d116      	bne.n	80014e4 <HAL_RCC_OscConfig+0x18c>
 80014b6:	4b43      	ldr	r3, [pc, #268]	; (80015c4 <HAL_RCC_OscConfig+0x26c>)
 80014b8:	681b      	ldr	r3, [r3, #0]
 80014ba:	f003 0302 	and.w	r3, r3, #2
 80014be:	2b00      	cmp	r3, #0
 80014c0:	d005      	beq.n	80014ce <HAL_RCC_OscConfig+0x176>
 80014c2:	687b      	ldr	r3, [r7, #4]
 80014c4:	691b      	ldr	r3, [r3, #16]
 80014c6:	2b01      	cmp	r3, #1
 80014c8:	d001      	beq.n	80014ce <HAL_RCC_OscConfig+0x176>
 80014ca:	2301      	movs	r3, #1
 80014cc:	e1c0      	b.n	8001850 <HAL_RCC_OscConfig+0x4f8>
 80014ce:	4b3d      	ldr	r3, [pc, #244]	; (80015c4 <HAL_RCC_OscConfig+0x26c>)
 80014d0:	681b      	ldr	r3, [r3, #0]
 80014d2:	f023 02f8 	bic.w	r2, r3, #248	; 0xf8
 80014d6:	687b      	ldr	r3, [r7, #4]
 80014d8:	695b      	ldr	r3, [r3, #20]
 80014da:	00db      	lsls	r3, r3, #3
 80014dc:	4939      	ldr	r1, [pc, #228]	; (80015c4 <HAL_RCC_OscConfig+0x26c>)
 80014de:	4313      	orrs	r3, r2
 80014e0:	600b      	str	r3, [r1, #0]
 80014e2:	e03a      	b.n	800155a <HAL_RCC_OscConfig+0x202>
 80014e4:	687b      	ldr	r3, [r7, #4]
 80014e6:	691b      	ldr	r3, [r3, #16]
 80014e8:	2b00      	cmp	r3, #0
 80014ea:	d020      	beq.n	800152e <HAL_RCC_OscConfig+0x1d6>
 80014ec:	4b36      	ldr	r3, [pc, #216]	; (80015c8 <HAL_RCC_OscConfig+0x270>)
 80014ee:	2201      	movs	r2, #1
 80014f0:	601a      	str	r2, [r3, #0]
 80014f2:	f7ff fc83 	bl	8000dfc <HAL_GetTick>
 80014f6:	6138      	str	r0, [r7, #16]
 80014f8:	e008      	b.n	800150c <HAL_RCC_OscConfig+0x1b4>
 80014fa:	f7ff fc7f 	bl	8000dfc <HAL_GetTick>
 80014fe:	4602      	mov	r2, r0
 8001500:	693b      	ldr	r3, [r7, #16]
 8001502:	1ad3      	subs	r3, r2, r3
 8001504:	2b02      	cmp	r3, #2
 8001506:	d901      	bls.n	800150c <HAL_RCC_OscConfig+0x1b4>
 8001508:	2303      	movs	r3, #3
 800150a:	e1a1      	b.n	8001850 <HAL_RCC_OscConfig+0x4f8>
 800150c:	4b2d      	ldr	r3, [pc, #180]	; (80015c4 <HAL_RCC_OscConfig+0x26c>)
 800150e:	681b      	ldr	r3, [r3, #0]
 8001510:	f003 0302 	and.w	r3, r3, #2
 8001514:	2b00      	cmp	r3, #0
 8001516:	d0f0      	beq.n	80014fa <HAL_RCC_OscConfig+0x1a2>
 8001518:	4b2a      	ldr	r3, [pc, #168]	; (80015c4 <HAL_RCC_OscConfig+0x26c>)
 800151a:	681b      	ldr	r3, [r3, #0]
 800151c:	f023 02f8 	bic.w	r2, r3, #248	; 0xf8
 8001520:	687b      	ldr	r3, [r7, #4]
 8001522:	695b      	ldr	r3, [r3, #20]
 8001524:	00db      	lsls	r3, r3, #3
 8001526:	4927      	ldr	r1, [pc, #156]	; (80015c4 <HAL_RCC_OscConfig+0x26c>)
 8001528:	4313      	orrs	r3, r2
 800152a:	600b      	str	r3, [r1, #0]
 800152c:	e015      	b.n	800155a <HAL_RCC_OscConfig+0x202>
 800152e:	4b26      	ldr	r3, [pc, #152]	; (80015c8 <HAL_RCC_OscConfig+0x270>)
 8001530:	2200      	movs	r2, #0
 8001532:	601a      	str	r2, [r3, #0]
 8001534:	f7ff fc62 	bl	8000dfc <HAL_GetTick>
 8001538:	6138      	str	r0, [r7, #16]
 800153a:	e008      	b.n	800154e <HAL_RCC_OscConfig+0x1f6>
 800153c:	f7ff fc5e 	bl	8000dfc <HAL_GetTick>
 8001540:	4602      	mov	r2, r0
 8001542:	693b      	ldr	r3, [r7, #16]
 8001544:	1ad3      	subs	r3, r2, r3
 8001546:	2b02      	cmp	r3, #2
 8001548:	d901      	bls.n	800154e <HAL_RCC_OscConfig+0x1f6>
 800154a:	2303      	movs	r3, #3
 800154c:	e180      	b.n	8001850 <HAL_RCC_OscConfig+0x4f8>
 800154e:	4b1d      	ldr	r3, [pc, #116]	; (80015c4 <HAL_RCC_OscConfig+0x26c>)
 8001550:	681b      	ldr	r3, [r3, #0]
 8001552:	f003 0302 	and.w	r3, r3, #2
 8001556:	2b00      	cmp	r3, #0
 8001558:	d1f0      	bne.n	800153c <HAL_RCC_OscConfig+0x1e4>
 800155a:	687b      	ldr	r3, [r7, #4]
 800155c:	681b      	ldr	r3, [r3, #0]
 800155e:	f003 0308 	and.w	r3, r3, #8
 8001562:	2b00      	cmp	r3, #0
 8001564:	d03a      	beq.n	80015dc <HAL_RCC_OscConfig+0x284>
 8001566:	687b      	ldr	r3, [r7, #4]
 8001568:	699b      	ldr	r3, [r3, #24]
 800156a:	2b00      	cmp	r3, #0
 800156c:	d019      	beq.n	80015a2 <HAL_RCC_OscConfig+0x24a>
 800156e:	4b17      	ldr	r3, [pc, #92]	; (80015cc <HAL_RCC_OscConfig+0x274>)
 8001570:	2201      	movs	r2, #1
 8001572:	601a      	str	r2, [r3, #0]
 8001574:	f7ff fc42 	bl	8000dfc <HAL_GetTick>
 8001578:	6138      	str	r0, [r7, #16]
 800157a:	e008      	b.n	800158e <HAL_RCC_OscConfig+0x236>
 800157c:	f7ff fc3e 	bl	8000dfc <HAL_GetTick>
 8001580:	4602      	mov	r2, r0
 8001582:	693b      	ldr	r3, [r7, #16]
 8001584:	1ad3      	subs	r3, r2, r3
 8001586:	2b02      	cmp	r3, #2
 8001588:	d901      	bls.n	800158e <HAL_RCC_OscConfig+0x236>
 800158a:	2303      	movs	r3, #3
 800158c:	e160      	b.n	8001850 <HAL_RCC_OscConfig+0x4f8>
 800158e:	4b0d      	ldr	r3, [pc, #52]	; (80015c4 <HAL_RCC_OscConfig+0x26c>)
 8001590:	6a5b      	ldr	r3, [r3, #36]	; 0x24
 8001592:	f003 0302 	and.w	r3, r3, #2
 8001596:	2b00      	cmp	r3, #0
 8001598:	d0f0      	beq.n	800157c <HAL_RCC_OscConfig+0x224>
 800159a:	2001      	movs	r0, #1
 800159c:	f000 faa6 	bl	8001aec <RCC_Delay>
 80015a0:	e01c      	b.n	80015dc <HAL_RCC_OscConfig+0x284>
 80015a2:	4b0a      	ldr	r3, [pc, #40]	; (80015cc <HAL_RCC_OscConfig+0x274>)
 80015a4:	2200      	movs	r2, #0
 80015a6:	601a      	str	r2, [r3, #0]
 80015a8:	f7ff fc28 	bl	8000dfc <HAL_GetTick>
 80015ac:	6138      	str	r0, [r7, #16]
 80015ae:	e00f      	b.n	80015d0 <HAL_RCC_OscConfig+0x278>
 80015b0:	f7ff fc24 	bl	8000dfc <HAL_GetTick>
 80015b4:	4602      	mov	r2, r0
 80015b6:	693b      	ldr	r3, [r7, #16]
 80015b8:	1ad3      	subs	r3, r2, r3
 80015ba:	2b02      	cmp	r3, #2
 80015bc:	d908      	bls.n	80015d0 <HAL_RCC_OscConfig+0x278>
 80015be:	2303      	movs	r3, #3
 80015c0:	e146      	b.n	8001850 <HAL_RCC_OscConfig+0x4f8>
 80015c2:	bf00      	nop
 80015c4:	40021000 	.word	0x40021000
 80015c8:	42420000 	.word	0x42420000
 80015cc:	42420480 	.word	0x42420480
 80015d0:	4b92      	ldr	r3, [pc, #584]	; (800181c <HAL_RCC_OscConfig+0x4c4>)
 80015d2:	6a5b      	ldr	r3, [r3, #36]	; 0x24
 80015d4:	f003 0302 	and.w	r3, r3, #2
 80015d8:	2b00      	cmp	r3, #0
 80015da:	d1e9      	bne.n	80015b0 <HAL_RCC_OscConfig+0x258>
 80015dc:	687b      	ldr	r3, [r7, #4]
 80015de:	681b      	ldr	r3, [r3, #0]
 80015e0:	f003 0304 	and.w	r3, r3, #4
 80015e4:	2b00      	cmp	r3, #0
 80015e6:	f000 80a6 	beq.w	8001736 <HAL_RCC_OscConfig+0x3de>
 80015ea:	2300      	movs	r3, #0
 80015ec:	75fb      	strb	r3, [r7, #23]
 80015ee:	4b8b      	ldr	r3, [pc, #556]	; (800181c <HAL_RCC_OscConfig+0x4c4>)
 80015f0:	69db      	ldr	r3, [r3, #28]
 80015f2:	f003 5380 	and.w	r3, r3, #268435456	; 0x10000000
 80015f6:	2b00      	cmp	r3, #0
 80015f8:	d10d      	bne.n	8001616 <HAL_RCC_OscConfig+0x2be>
 80015fa:	4b88      	ldr	r3, [pc, #544]	; (800181c <HAL_RCC_OscConfig+0x4c4>)
 80015fc:	69db      	ldr	r3, [r3, #28]
 80015fe:	4a87      	ldr	r2, [pc, #540]	; (800181c <HAL_RCC_OscConfig+0x4c4>)
 8001600:	f043 5380 	orr.w	r3, r3, #268435456	; 0x10000000
 8001604:	61d3      	str	r3, [r2, #28]
 8001606:	4b85      	ldr	r3, [pc, #532]	; (800181c <HAL_RCC_OscConfig+0x4c4>)
 8001608:	69db      	ldr	r3, [r3, #28]
 800160a:	f003 5380 	and.w	r3, r3, #268435456	; 0x10000000
 800160e:	60bb      	str	r3, [r7, #8]
 8001610:	68bb      	ldr	r3, [r7, #8]
 8001612:	2301      	movs	r3, #1
 8001614:	75fb      	strb	r3, [r7, #23]
 8001616:	4b82      	ldr	r3, [pc, #520]	; (8001820 <HAL_RCC_OscConfig+0x4c8>)
 8001618:	681b      	ldr	r3, [r3, #0]
 800161a:	f403 7380 	and.w	r3, r3, #256	; 0x100
 800161e:	2b00      	cmp	r3, #0
 8001620:	d118      	bne.n	8001654 <HAL_RCC_OscConfig+0x2fc>
 8001622:	4b7f      	ldr	r3, [pc, #508]	; (8001820 <HAL_RCC_OscConfig+0x4c8>)
 8001624:	681b      	ldr	r3, [r3, #0]
 8001626:	4a7e      	ldr	r2, [pc, #504]	; (8001820 <HAL_RCC_OscConfig+0x4c8>)
 8001628:	f443 7380 	orr.w	r3, r3, #256	; 0x100
 800162c:	6013      	str	r3, [r2, #0]
 800162e:	f7ff fbe5 	bl	8000dfc <HAL_GetTick>
 8001632:	6138      	str	r0, [r7, #16]
 8001634:	e008      	b.n	8001648 <HAL_RCC_OscConfig+0x2f0>
 8001636:	f7ff fbe1 	bl	8000dfc <HAL_GetTick>
 800163a:	4602      	mov	r2, r0
 800163c:	693b      	ldr	r3, [r7, #16]
 800163e:	1ad3      	subs	r3, r2, r3
 8001640:	2b64      	cmp	r3, #100	; 0x64
 8001642:	d901      	bls.n	8001648 <HAL_RCC_OscConfig+0x2f0>
 8001644:	2303      	movs	r3, #3
 8001646:	e103      	b.n	8001850 <HAL_RCC_OscConfig+0x4f8>
 8001648:	4b75      	ldr	r3, [pc, #468]	; (8001820 <HAL_RCC_OscConfig+0x4c8>)
 800164a:	681b      	ldr	r3, [r3, #0]
 800164c:	f403 7380 	and.w	r3, r3, #256	; 0x100
 8001650:	2b00      	cmp	r3, #0
 8001652:	d0f0      	beq.n	8001636 <HAL_RCC_OscConfig+0x2de>
 8001654:	687b      	ldr	r3, [r7, #4]
 8001656:	68db      	ldr	r3, [r3, #12]
 8001658:	2b01      	cmp	r3, #1
 800165a:	d106      	bne.n	800166a <HAL_RCC_OscConfig+0x312>
 800165c:	4b6f      	ldr	r3, [pc, #444]	; (800181c <HAL_RCC_OscConfig+0x4c4>)
 800165e:	6a1b      	ldr	r3, [r3, #32]
 8001660:	4a6e      	ldr	r2, [pc, #440]	; (800181c <HAL_RCC_OscConfig+0x4c4>)
 8001662:	f043 0301 	orr.w	r3, r3, #1
 8001666:	6213      	str	r3, [r2, #32]
 8001668:	e02d      	b.n	80016c6 <HAL_RCC_OscConfig+0x36e>
 800166a:	687b      	ldr	r3, [r7, #4]
 800166c:	68db      	ldr	r3, [r3, #12]
 800166e:	2b00      	cmp	r3, #0
 8001670:	d10c      	bne.n	800168c <HAL_RCC_OscConfig+0x334>
 8001672:	4b6a      	ldr	r3, [pc, #424]	; (800181c <HAL_RCC_OscConfig+0x4c4>)
 8001674:	6a1b      	ldr	r3, [r3, #32]
 8001676:	4a69      	ldr	r2, [pc, #420]	; (800181c <HAL_RCC_OscConfig+0x4c4>)
 8001678:	f023 0301 	bic.w	r3, r3, #1
 800167c:	6213      	str	r3, [r2, #32]
 800167e:	4b67      	ldr	r3, [pc, #412]	; (800181c <HAL_RCC_OscConfig+0x4c4>)
 8001680:	6a1b      	ldr	r3, [r3, #32]
 8001682:	4a66      	ldr	r2, [pc, #408]	; (800181c <HAL_RCC_OscConfig+0x4c4>)
 8001684:	f023 0304 	bic.w	r3, r3, #4
 8001688:	6213      	str	r3, [r2, #32]
 800168a:	e01c      	b.n	80016c6 <HAL_RCC_OscConfig+0x36e>
 800168c:	687b      	ldr	r3, [r7, #4]
 800168e:	68db      	ldr	r3, [r3, #12]
 8001690:	2b05      	cmp	r3, #5
 8001692:	d10c      	bne.n	80016ae <HAL_RCC_OscConfig+0x356>
 8001694:	4b61      	ldr	r3, [pc, #388]	; (800181c <HAL_RCC_OscConfig+0x4c4>)
 8001696:	6a1b      	ldr	r3, [r3, #32]
 8001698:	4a60      	ldr	r2, [pc, #384]	; (800181c <HAL_RCC_OscConfig+0x4c4>)
 800169a:	f043 0304 	orr.w	r3, r3, #4
 800169e:	6213      	str	r3, [r2, #32]
 80016a0:	4b5e      	ldr	r3, [pc, #376]	; (800181c <HAL_RCC_OscConfig+0x4c4>)
 80016a2:	6a1b      	ldr	r3, [r3, #32]
 80016a4:	4a5d      	ldr	r2, [pc, #372]	; (800181c <HAL_RCC_OscConfig+0x4c4>)
 80016a6:	f043 0301 	orr.w	r3, r3, #1
 80016aa:	6213      	str	r3, [r2, #32]
 80016ac:	e00b      	b.n	80016c6 <HAL_RCC_OscConfig+0x36e>
 80016ae:	4b5b      	ldr	r3, [pc, #364]	; (800181c <HAL_RCC_OscConfig+0x4c4>)
 80016b0:	6a1b      	ldr	r3, [r3, #32]
 80016b2:	4a5a      	ldr	r2, [pc, #360]	; (800181c <HAL_RCC_OscConfig+0x4c4>)
 80016b4:	f023 0301 	bic.w	r3, r3, #1
 80016b8:	6213      	str	r3, [r2, #32]
 80016ba:	4b58      	ldr	r3, [pc, #352]	; (800181c <HAL_RCC_OscConfig+0x4c4>)
 80016bc:	6a1b      	ldr	r3, [r3, #32]
 80016be:	4a57      	ldr	r2, [pc, #348]	; (800181c <HAL_RCC_OscConfig+0x4c4>)
 80016c0:	f023 0304 	bic.w	r3, r3, #4
 80016c4:	6213      	str	r3, [r2, #32]
 80016c6:	687b      	ldr	r3, [r7, #4]
 80016c8:	68db      	ldr	r3, [r3, #12]
 80016ca:	2b00      	cmp	r3, #0
 80016cc:	d015      	beq.n	80016fa <HAL_RCC_OscConfig+0x3a2>
 80016ce:	f7ff fb95 	bl	8000dfc <HAL_GetTick>
 80016d2:	6138      	str	r0, [r7, #16]
 80016d4:	e00a      	b.n	80016ec <HAL_RCC_OscConfig+0x394>
 80016d6:	f7ff fb91 	bl	8000dfc <HAL_GetTick>
 80016da:	4602      	mov	r2, r0
 80016dc:	693b      	ldr	r3, [r7, #16]
 80016de:	1ad3      	subs	r3, r2, r3
 80016e0:	f241 3288 	movw	r2, #5000	; 0x1388
 80016e4:	4293      	cmp	r3, r2
 80016e6:	d901      	bls.n	80016ec <HAL_RCC_OscConfig+0x394>
 80016e8:	2303      	movs	r3, #3
 80016ea:	e0b1      	b.n	8001850 <HAL_RCC_OscConfig+0x4f8>
 80016ec:	4b4b      	ldr	r3, [pc, #300]	; (800181c <HAL_RCC_OscConfig+0x4c4>)
 80016ee:	6a1b      	ldr	r3, [r3, #32]
 80016f0:	f003 0302 	and.w	r3, r3, #2
 80016f4:	2b00      	cmp	r3, #0
 80016f6:	d0ee      	beq.n	80016d6 <HAL_RCC_OscConfig+0x37e>
 80016f8:	e014      	b.n	8001724 <HAL_RCC_OscConfig+0x3cc>
 80016fa:	f7ff fb7f 	bl	8000dfc <HAL_GetTick>
 80016fe:	6138      	str	r0, [r7, #16]
 8001700:	e00a      	b.n	8001718 <HAL_RCC_OscConfig+0x3c0>
 8001702:	f7ff fb7b 	bl	8000dfc <HAL_GetTick>
 8001706:	4602      	mov	r2, r0
 8001708:	693b      	ldr	r3, [r7, #16]
 800170a:	1ad3      	subs	r3, r2, r3
 800170c:	f241 3288 	movw	r2, #5000	; 0x1388
 8001710:	4293      	cmp	r3, r2
 8001712:	d901      	bls.n	8001718 <HAL_RCC_OscConfig+0x3c0>
 8001714:	2303      	movs	r3, #3
 8001716:	e09b      	b.n	8001850 <HAL_RCC_OscConfig+0x4f8>
 8001718:	4b40      	ldr	r3, [pc, #256]	; (800181c <HAL_RCC_OscConfig+0x4c4>)
 800171a:	6a1b      	ldr	r3, [r3, #32]
 800171c:	f003 0302 	and.w	r3, r3, #2
 8001720:	2b00      	cmp	r3, #0
 8001722:	d1ee      	bne.n	8001702 <HAL_RCC_OscConfig+0x3aa>
 8001724:	7dfb      	ldrb	r3, [r7, #23]
 8001726:	2b01      	cmp	r3, #1
 8001728:	d105      	bne.n	8001736 <HAL_RCC_OscConfig+0x3de>
 800172a:	4b3c      	ldr	r3, [pc, #240]	; (800181c <HAL_RCC_OscConfig+0x4c4>)
 800172c:	69db      	ldr	r3, [r3, #28]
 800172e:	4a3b      	ldr	r2, [pc, #236]	; (800181c <HAL_RCC_OscConfig+0x4c4>)
 8001730:	f023 5380 	bic.w	r3, r3, #268435456	; 0x10000000
 8001734:	61d3      	str	r3, [r2, #28]
 8001736:	687b      	ldr	r3, [r7, #4]
 8001738:	69db      	ldr	r3, [r3, #28]
 800173a:	2b00      	cmp	r3, #0
 800173c:	f000 8087 	beq.w	800184e <HAL_RCC_OscConfig+0x4f6>
 8001740:	4b36      	ldr	r3, [pc, #216]	; (800181c <HAL_RCC_OscConfig+0x4c4>)
 8001742:	685b      	ldr	r3, [r3, #4]
 8001744:	f003 030c 	and.w	r3, r3, #12
 8001748:	2b08      	cmp	r3, #8
 800174a:	d061      	beq.n	8001810 <HAL_RCC_OscConfig+0x4b8>
 800174c:	687b      	ldr	r3, [r7, #4]
 800174e:	69db      	ldr	r3, [r3, #28]
 8001750:	2b02      	cmp	r3, #2
 8001752:	d146      	bne.n	80017e2 <HAL_RCC_OscConfig+0x48a>
 8001754:	4b33      	ldr	r3, [pc, #204]	; (8001824 <HAL_RCC_OscConfig+0x4cc>)
 8001756:	2200      	movs	r2, #0
 8001758:	601a      	str	r2, [r3, #0]
 800175a:	f7ff fb4f 	bl	8000dfc <HAL_GetTick>
 800175e:	6138      	str	r0, [r7, #16]
 8001760:	e008      	b.n	8001774 <HAL_RCC_OscConfig+0x41c>
 8001762:	f7ff fb4b 	bl	8000dfc <HAL_GetTick>
 8001766:	4602      	mov	r2, r0
 8001768:	693b      	ldr	r3, [r7, #16]
 800176a:	1ad3      	subs	r3, r2, r3
 800176c:	2b02      	cmp	r3, #2
 800176e:	d901      	bls.n	8001774 <HAL_RCC_OscConfig+0x41c>
 8001770:	2303      	movs	r3, #3
 8001772:	e06d      	b.n	8001850 <HAL_RCC_OscConfig+0x4f8>
 8001774:	4b29      	ldr	r3, [pc, #164]	; (800181c <HAL_RCC_OscConfig+0x4c4>)
 8001776:	681b      	ldr	r3, [r3, #0]
 8001778:	f003 7300 	and.w	r3, r3, #33554432	; 0x2000000
 800177c:	2b00      	cmp	r3, #0
 800177e:	d1f0      	bne.n	8001762 <HAL_RCC_OscConfig+0x40a>
 8001780:	687b      	ldr	r3, [r7, #4]
 8001782:	6a1b      	ldr	r3, [r3, #32]
 8001784:	f5b3 3f80 	cmp.w	r3, #65536	; 0x10000
 8001788:	d108      	bne.n	800179c <HAL_RCC_OscConfig+0x444>
 800178a:	4b24      	ldr	r3, [pc, #144]	; (800181c <HAL_RCC_OscConfig+0x4c4>)
 800178c:	685b      	ldr	r3, [r3, #4]
 800178e:	f423 3200 	bic.w	r2, r3, #131072	; 0x20000
 8001792:	687b      	ldr	r3, [r7, #4]
 8001794:	689b      	ldr	r3, [r3, #8]
 8001796:	4921      	ldr	r1, [pc, #132]	; (800181c <HAL_RCC_OscConfig+0x4c4>)
 8001798:	4313      	orrs	r3, r2
 800179a:	604b      	str	r3, [r1, #4]
 800179c:	4b1f      	ldr	r3, [pc, #124]	; (800181c <HAL_RCC_OscConfig+0x4c4>)
 800179e:	685b      	ldr	r3, [r3, #4]
 80017a0:	f423 1274 	bic.w	r2, r3, #3997696	; 0x3d0000
 80017a4:	687b      	ldr	r3, [r7, #4]
 80017a6:	6a19      	ldr	r1, [r3, #32]
 80017a8:	687b      	ldr	r3, [r7, #4]
 80017aa:	6a5b      	ldr	r3, [r3, #36]	; 0x24
 80017ac:	430b      	orrs	r3, r1
 80017ae:	491b      	ldr	r1, [pc, #108]	; (800181c <HAL_RCC_OscConfig+0x4c4>)
 80017b0:	4313      	orrs	r3, r2
 80017b2:	604b      	str	r3, [r1, #4]
 80017b4:	4b1b      	ldr	r3, [pc, #108]	; (8001824 <HAL_RCC_OscConfig+0x4cc>)
 80017b6:	2201      	movs	r2, #1
 80017b8:	601a      	str	r2, [r3, #0]
 80017ba:	f7ff fb1f 	bl	8000dfc <HAL_GetTick>
 80017be:	6138      	str	r0, [r7, #16]
 80017c0:	e008      	b.n	80017d4 <HAL_RCC_OscConfig+0x47c>
 80017c2:	f7ff fb1b 	bl	8000dfc <HAL_GetTick>
 80017c6:	4602      	mov	r2, r0
 80017c8:	693b      	ldr	r3, [r7, #16]
 80017ca:	1ad3      	subs	r3, r2, r3
 80017cc:	2b02      	cmp	r3, #2
 80017ce:	d901      	bls.n	80017d4 <HAL_RCC_OscConfig+0x47c>
 80017d0:	2303      	movs	r3, #3
 80017d2:	e03d      	b.n	8001850 <HAL_RCC_OscConfig+0x4f8>
 80017d4:	4b11      	ldr	r3, [pc, #68]	; (800181c <HAL_RCC_OscConfig+0x4c4>)
 80017d6:	681b      	ldr	r3, [r3, #0]
 80017d8:	f003 7300 	and.w	r3, r3, #33554432	; 0x2000000
 80017dc:	2b00      	cmp	r3, #0
 80017de:	d0f0      	beq.n	80017c2 <HAL_RCC_OscConfig+0x46a>
 80017e0:	e035      	b.n	800184e <HAL_RCC_OscConfig+0x4f6>
 80017e2:	4b10      	ldr	r3, [pc, #64]	; (8001824 <HAL_RCC_OscConfig+0x4cc>)
 80017e4:	2200      	movs	r2, #0
 80017e6:	601a      	str	r2, [r3, #0]
 80017e8:	f7ff fb08 	bl	8000dfc <HAL_GetTick>
 80017ec:	6138      	str	r0, [r7, #16]
 80017ee:	e008      	b.n	8001802 <HAL_RCC_OscConfig+0x4aa>
 80017f0:	f7ff fb04 	bl	8000dfc <HAL_GetTick>
 80017f4:	4602      	mov	r2, r0
 80017f6:	693b      	ldr	r3, [r7, #16]
 80017f8:	1ad3      	subs	r3, r2, r3
 80017fa:	2b02      	cmp	r3, #2
 80017fc:	d901      	bls.n	8001802 <HAL_RCC_OscConfig+0x4aa>
 80017fe:	2303      	movs	r3, #3
 8001800:	e026      	b.n	8001850 <HAL_RCC_OscConfig+0x4f8>
 8001802:	4b06      	ldr	r3, [pc, #24]	; (800181c <HAL_RCC_OscConfig+0x4c4>)
 8001804:	681b      	ldr	r3, [r3, #0]
 8001806:	f003 7300 	and.w	r3, r3, #33554432	; 0x2000000
 800180a:	2b00      	cmp	r3, #0
 800180c:	d1f0      	bne.n	80017f0 <HAL_RCC_OscConfig+0x498>
 800180e:	e01e      	b.n	800184e <HAL_RCC_OscConfig+0x4f6>
 8001810:	687b      	ldr	r3, [r7, #4]
 8001812:	69db      	ldr	r3, [r3, #28]
 8001814:	2b01      	cmp	r3, #1
 8001816:	d107      	bne.n	8001828 <HAL_RCC_OscConfig+0x4d0>
 8001818:	2301      	movs	r3, #1
 800181a:	e019      	b.n	8001850 <HAL_RCC_OscConfig+0x4f8>
 800181c:	40021000 	.word	0x40021000
 8001820:	40007000 	.word	0x40007000
 8001824:	42420060 	.word	0x42420060
 8001828:	4b0b      	ldr	r3, [pc, #44]	; (8001858 <HAL_RCC_OscConfig+0x500>)
 800182a:	685b      	ldr	r3, [r3, #4]
 800182c:	60fb      	str	r3, [r7, #12]
 800182e:	68fb      	ldr	r3, [r7, #12]
 8001830:	f403 3280 	and.w	r2, r3, #65536	; 0x10000
 8001834:	687b      	ldr	r3, [r7, #4]
 8001836:	6a1b      	ldr	r3, [r3, #32]
 8001838:	429a      	cmp	r2, r3
 800183a:	d106      	bne.n	800184a <HAL_RCC_OscConfig+0x4f2>
 800183c:	68fb      	ldr	r3, [r7, #12]
 800183e:	f403 1270 	and.w	r2, r3, #3932160	; 0x3c0000
 8001842:	687b      	ldr	r3, [r7, #4]
 8001844:	6a5b      	ldr	r3, [r3, #36]	; 0x24
 8001846:	429a      	cmp	r2, r3
 8001848:	d001      	beq.n	800184e <HAL_RCC_OscConfig+0x4f6>
 800184a:	2301      	movs	r3, #1
 800184c:	e000      	b.n	8001850 <HAL_RCC_OscConfig+0x4f8>
 800184e:	2300      	movs	r3, #0
 8001850:	4618      	mov	r0, r3
 8001852:	3718      	adds	r7, #24
 8001854:	46bd      	mov	sp, r7
 8001856:	bd80      	pop	{r7, pc}
 8001858:	40021000 	.word	0x40021000

0800185c <HAL_RCC_ClockConfig>:
 800185c:	b580      	push	{r7, lr}
 800185e:	b084      	sub	sp, #16
 8001860:	af00      	add	r7, sp, #0
 8001862:	6078      	str	r0, [r7, #4]
 8001864:	6039      	str	r1, [r7, #0]
 8001866:	687b      	ldr	r3, [r7, #4]
 8001868:	2b00      	cmp	r3, #0
 800186a:	d101      	bne.n	8001870 <HAL_RCC_ClockConfig+0x14>
 800186c:	2301      	movs	r3, #1
 800186e:	e0d0      	b.n	8001a12 <HAL_RCC_ClockConfig+0x1b6>
 8001870:	4b6a      	ldr	r3, [pc, #424]	; (8001a1c <HAL_RCC_ClockConfig+0x1c0>)
 8001872:	681b      	ldr	r3, [r3, #0]
 8001874:	f003 0307 	and.w	r3, r3, #7
 8001878:	683a      	ldr	r2, [r7, #0]
 800187a:	429a      	cmp	r2, r3
 800187c:	d910      	bls.n	80018a0 <HAL_RCC_ClockConfig+0x44>
 800187e:	4b67      	ldr	r3, [pc, #412]	; (8001a1c <HAL_RCC_ClockConfig+0x1c0>)
 8001880:	681b      	ldr	r3, [r3, #0]
 8001882:	f023 0207 	bic.w	r2, r3, #7
 8001886:	4965      	ldr	r1, [pc, #404]	; (8001a1c <HAL_RCC_ClockConfig+0x1c0>)
 8001888:	683b      	ldr	r3, [r7, #0]
 800188a:	4313      	orrs	r3, r2
 800188c:	600b      	str	r3, [r1, #0]
 800188e:	4b63      	ldr	r3, [pc, #396]	; (8001a1c <HAL_RCC_ClockConfig+0x1c0>)
 8001890:	681b      	ldr	r3, [r3, #0]
 8001892:	f003 0307 	and.w	r3, r3, #7
 8001896:	683a      	ldr	r2, [r7, #0]
 8001898:	429a      	cmp	r2, r3
 800189a:	d001      	beq.n	80018a0 <HAL_RCC_ClockConfig+0x44>
 800189c:	2301      	movs	r3, #1
 800189e:	e0b8      	b.n	8001a12 <HAL_RCC_ClockConfig+0x1b6>
 80018a0:	687b      	ldr	r3, [r7, #4]
 80018a2:	681b      	ldr	r3, [r3, #0]
 80018a4:	f003 0302 	and.w	r3, r3, #2
 80018a8:	2b00      	cmp	r3, #0
 80018aa:	d020      	beq.n	80018ee <HAL_RCC_ClockConfig+0x92>
 80018ac:	687b      	ldr	r3, [r7, #4]
 80018ae:	681b      	ldr	r3, [r3, #0]
 80018b0:	f003 0304 	and.w	r3, r3, #4
 80018b4:	2b00      	cmp	r3, #0
 80018b6:	d005      	beq.n	80018c4 <HAL_RCC_ClockConfig+0x68>
 80018b8:	4b59      	ldr	r3, [pc, #356]	; (8001a20 <HAL_RCC_ClockConfig+0x1c4>)
 80018ba:	685b      	ldr	r3, [r3, #4]
 80018bc:	4a58      	ldr	r2, [pc, #352]	; (8001a20 <HAL_RCC_ClockConfig+0x1c4>)
 80018be:	f443 63e0 	orr.w	r3, r3, #1792	; 0x700
 80018c2:	6053      	str	r3, [r2, #4]
 80018c4:	687b      	ldr	r3, [r7, #4]
 80018c6:	681b      	ldr	r3, [r3, #0]
 80018c8:	f003 0308 	and.w	r3, r3, #8
 80018cc:	2b00      	cmp	r3, #0
 80018ce:	d005      	beq.n	80018dc <HAL_RCC_ClockConfig+0x80>
 80018d0:	4b53      	ldr	r3, [pc, #332]	; (8001a20 <HAL_RCC_ClockConfig+0x1c4>)
 80018d2:	685b      	ldr	r3, [r3, #4]
 80018d4:	4a52      	ldr	r2, [pc, #328]	; (8001a20 <HAL_RCC_ClockConfig+0x1c4>)
 80018d6:	f443 5360 	orr.w	r3, r3, #14336	; 0x3800
 80018da:	6053      	str	r3, [r2, #4]
 80018dc:	4b50      	ldr	r3, [pc, #320]	; (8001a20 <HAL_RCC_ClockConfig+0x1c4>)
 80018de:	685b      	ldr	r3, [r3, #4]
 80018e0:	f023 02f0 	bic.w	r2, r3, #240	; 0xf0
 80018e4:	687b      	ldr	r3, [r7, #4]
 80018e6:	689b      	ldr	r3, [r3, #8]
 80018e8:	494d      	ldr	r1, [pc, #308]	; (8001a20 <HAL_RCC_ClockConfig+0x1c4>)
 80018ea:	4313      	orrs	r3, r2
 80018ec:	604b      	str	r3, [r1, #4]
 80018ee:	687b      	ldr	r3, [r7, #4]
 80018f0:	681b      	ldr	r3, [r3, #0]
 80018f2:	f003 0301 	and.w	r3, r3, #1
 80018f6:	2b00      	cmp	r3, #0
 80018f8:	d040      	beq.n	800197c <HAL_RCC_ClockConfig+0x120>
 80018fa:	687b      	ldr	r3, [r7, #4]
 80018fc:	685b      	ldr	r3, [r3, #4]
 80018fe:	2b01      	cmp	r3, #1
 8001900:	d107      	bne.n	8001912 <HAL_RCC_ClockConfig+0xb6>
 8001902:	4b47      	ldr	r3, [pc, #284]	; (8001a20 <HAL_RCC_ClockConfig+0x1c4>)
 8001904:	681b      	ldr	r3, [r3, #0]
 8001906:	f403 3300 	and.w	r3, r3, #131072	; 0x20000
 800190a:	2b00      	cmp	r3, #0
 800190c:	d115      	bne.n	800193a <HAL_RCC_ClockConfig+0xde>
 800190e:	2301      	movs	r3, #1
 8001910:	e07f      	b.n	8001a12 <HAL_RCC_ClockConfig+0x1b6>
 8001912:	687b      	ldr	r3, [r7, #4]
 8001914:	685b      	ldr	r3, [r3, #4]
 8001916:	2b02      	cmp	r3, #2
 8001918:	d107      	bne.n	800192a <HAL_RCC_ClockConfig+0xce>
 800191a:	4b41      	ldr	r3, [pc, #260]	; (8001a20 <HAL_RCC_ClockConfig+0x1c4>)
 800191c:	681b      	ldr	r3, [r3, #0]
 800191e:	f003 7300 	and.w	r3, r3, #33554432	; 0x2000000
 8001922:	2b00      	cmp	r3, #0
 8001924:	d109      	bne.n	800193a <HAL_RCC_ClockConfig+0xde>
 8001926:	2301      	movs	r3, #1
 8001928:	e073      	b.n	8001a12 <HAL_RCC_ClockConfig+0x1b6>
 800192a:	4b3d      	ldr	r3, [pc, #244]	; (8001a20 <HAL_RCC_ClockConfig+0x1c4>)
 800192c:	681b      	ldr	r3, [r3, #0]
 800192e:	f003 0302 	and.w	r3, r3, #2
 8001932:	2b00      	cmp	r3, #0
 8001934:	d101      	bne.n	800193a <HAL_RCC_ClockConfig+0xde>
 8001936:	2301      	movs	r3, #1
 8001938:	e06b      	b.n	8001a12 <HAL_RCC_ClockConfig+0x1b6>
 800193a:	4b39      	ldr	r3, [pc, #228]	; (8001a20 <HAL_RCC_ClockConfig+0x1c4>)
 800193c:	685b      	ldr	r3, [r3, #4]
 800193e:	f023 0203 	bic.w	r2, r3, #3
 8001942:	687b      	ldr	r3, [r7, #4]
 8001944:	685b      	ldr	r3, [r3, #4]
 8001946:	4936      	ldr	r1, [pc, #216]	; (8001a20 <HAL_RCC_ClockConfig+0x1c4>)
 8001948:	4313      	orrs	r3, r2
 800194a:	604b      	str	r3, [r1, #4]
 800194c:	f7ff fa56 	bl	8000dfc <HAL_GetTick>
 8001950:	60f8      	str	r0, [r7, #12]
 8001952:	e00a      	b.n	800196a <HAL_RCC_ClockConfig+0x10e>
 8001954:	f7ff fa52 	bl	8000dfc <HAL_GetTick>
 8001958:	4602      	mov	r2, r0
 800195a:	68fb      	ldr	r3, [r7, #12]
 800195c:	1ad3      	subs	r3, r2, r3
 800195e:	f241 3288 	movw	r2, #5000	; 0x1388
 8001962:	4293      	cmp	r3, r2
 8001964:	d901      	bls.n	800196a <HAL_RCC_ClockConfig+0x10e>
 8001966:	2303      	movs	r3, #3
 8001968:	e053      	b.n	8001a12 <HAL_RCC_ClockConfig+0x1b6>
 800196a:	4b2d      	ldr	r3, [pc, #180]	; (8001a20 <HAL_RCC_ClockConfig+0x1c4>)
 800196c:	685b      	ldr	r3, [r3, #4]
 800196e:	f003 020c 	and.w	r2, r3, #12
 8001972:	687b      	ldr	r3, [r7, #4]
 8001974:	685b      	ldr	r3, [r3, #4]
 8001976:	009b      	lsls	r3, r3, #2
 8001978:	429a      	cmp	r2, r3
 800197a:	d1eb      	bne.n	8001954 <HAL_RCC_ClockConfig+0xf8>
 800197c:	4b27      	ldr	r3, [pc, #156]	; (8001a1c <HAL_RCC_ClockConfig+0x1c0>)
 800197e:	681b      	ldr	r3, [r3, #0]
 8001980:	f003 0307 	and.w	r3, r3, #7
 8001984:	683a      	ldr	r2, [r7, #0]
 8001986:	429a      	cmp	r2, r3
 8001988:	d210      	bcs.n	80019ac <HAL_RCC_ClockConfig+0x150>
 800198a:	4b24      	ldr	r3, [pc, #144]	; (8001a1c <HAL_RCC_ClockConfig+0x1c0>)
 800198c:	681b      	ldr	r3, [r3, #0]
 800198e:	f023 0207 	bic.w	r2, r3, #7
 8001992:	4922      	ldr	r1, [pc, #136]	; (8001a1c <HAL_RCC_ClockConfig+0x1c0>)
 8001994:	683b      	ldr	r3, [r7, #0]
 8001996:	4313      	orrs	r3, r2
 8001998:	600b      	str	r3, [r1, #0]
 800199a:	4b20      	ldr	r3, [pc, #128]	; (8001a1c <HAL_RCC_ClockConfig+0x1c0>)
 800199c:	681b      	ldr	r3, [r3, #0]
 800199e:	f003 0307 	and.w	r3, r3, #7
 80019a2:	683a      	ldr	r2, [r7, #0]
 80019a4:	429a      	cmp	r2, r3
 80019a6:	d001      	beq.n	80019ac <HAL_RCC_ClockConfig+0x150>
 80019a8:	2301      	movs	r3, #1
 80019aa:	e032      	b.n	8001a12 <HAL_RCC_ClockConfig+0x1b6>
 80019ac:	687b      	ldr	r3, [r7, #4]
 80019ae:	681b      	ldr	r3, [r3, #0]
 80019b0:	f003 0304 	and.w	r3, r3, #4
 80019b4:	2b00      	cmp	r3, #0
 80019b6:	d008      	beq.n	80019ca <HAL_RCC_ClockConfig+0x16e>
 80019b8:	4b19      	ldr	r3, [pc, #100]	; (8001a20 <HAL_RCC_ClockConfig+0x1c4>)
 80019ba:	685b      	ldr	r3, [r3, #4]
 80019bc:	f423 62e0 	bic.w	r2, r3, #1792	; 0x700
 80019c0:	687b      	ldr	r3, [r7, #4]
 80019c2:	68db      	ldr	r3, [r3, #12]
 80019c4:	4916      	ldr	r1, [pc, #88]	; (8001a20 <HAL_RCC_ClockConfig+0x1c4>)
 80019c6:	4313      	orrs	r3, r2
 80019c8:	604b      	str	r3, [r1, #4]
 80019ca:	687b      	ldr	r3, [r7, #4]
 80019cc:	681b      	ldr	r3, [r3, #0]
 80019ce:	f003 0308 	and.w	r3, r3, #8
 80019d2:	2b00      	cmp	r3, #0
 80019d4:	d009      	beq.n	80019ea <HAL_RCC_ClockConfig+0x18e>
 80019d6:	4b12      	ldr	r3, [pc, #72]	; (8001a20 <HAL_RCC_ClockConfig+0x1c4>)
 80019d8:	685b      	ldr	r3, [r3, #4]
 80019da:	f423 5260 	bic.w	r2, r3, #14336	; 0x3800
 80019de:	687b      	ldr	r3, [r7, #4]
 80019e0:	691b      	ldr	r3, [r3, #16]
 80019e2:	00db      	lsls	r3, r3, #3
 80019e4:	490e      	ldr	r1, [pc, #56]	; (8001a20 <HAL_RCC_ClockConfig+0x1c4>)
 80019e6:	4313      	orrs	r3, r2
 80019e8:	604b      	str	r3, [r1, #4]
 80019ea:	f000 f821 	bl	8001a30 <HAL_RCC_GetSysClockFreq>
 80019ee:	4602      	mov	r2, r0
 80019f0:	4b0b      	ldr	r3, [pc, #44]	; (8001a20 <HAL_RCC_ClockConfig+0x1c4>)
 80019f2:	685b      	ldr	r3, [r3, #4]
 80019f4:	091b      	lsrs	r3, r3, #4
 80019f6:	f003 030f 	and.w	r3, r3, #15
 80019fa:	490a      	ldr	r1, [pc, #40]	; (8001a24 <HAL_RCC_ClockConfig+0x1c8>)
 80019fc:	5ccb      	ldrb	r3, [r1, r3]
 80019fe:	fa22 f303 	lsr.w	r3, r2, r3
 8001a02:	4a09      	ldr	r2, [pc, #36]	; (8001a28 <HAL_RCC_ClockConfig+0x1cc>)
 8001a04:	6013      	str	r3, [r2, #0]
 8001a06:	4b09      	ldr	r3, [pc, #36]	; (8001a2c <HAL_RCC_ClockConfig+0x1d0>)
 8001a08:	681b      	ldr	r3, [r3, #0]
 8001a0a:	4618      	mov	r0, r3
 8001a0c:	f7ff f9b4 	bl	8000d78 <HAL_InitTick>
 8001a10:	2300      	movs	r3, #0
 8001a12:	4618      	mov	r0, r3
 8001a14:	3710      	adds	r7, #16
 8001a16:	46bd      	mov	sp, r7
 8001a18:	bd80      	pop	{r7, pc}
 8001a1a:	bf00      	nop
 8001a1c:	40022000 	.word	0x40022000
 8001a20:	40021000 	.word	0x40021000
 8001a24:	08001c84 	.word	0x08001c84
 8001a28:	2000001c 	.word	0x2000001c
 8001a2c:	20000020 	.word	0x20000020

08001a30 <HAL_RCC_GetSysClockFreq>:
 8001a30:	b480      	push	{r7}
 8001a32:	b087      	sub	sp, #28
 8001a34:	af00      	add	r7, sp, #0
 8001a36:	2300      	movs	r3, #0
 8001a38:	60fb      	str	r3, [r7, #12]
 8001a3a:	2300      	movs	r3, #0
 8001a3c:	60bb      	str	r3, [r7, #8]
 8001a3e:	2300      	movs	r3, #0
 8001a40:	617b      	str	r3, [r7, #20]
 8001a42:	2300      	movs	r3, #0
 8001a44:	607b      	str	r3, [r7, #4]
 8001a46:	2300      	movs	r3, #0
 8001a48:	613b      	str	r3, [r7, #16]
 8001a4a:	4b1e      	ldr	r3, [pc, #120]	; (8001ac4 <HAL_RCC_GetSysClockFreq+0x94>)
 8001a4c:	685b      	ldr	r3, [r3, #4]
 8001a4e:	60fb      	str	r3, [r7, #12]
 8001a50:	68fb      	ldr	r3, [r7, #12]
 8001a52:	f003 030c 	and.w	r3, r3, #12
 8001a56:	2b04      	cmp	r3, #4
 8001a58:	d002      	beq.n	8001a60 <HAL_RCC_GetSysClockFreq+0x30>
 8001a5a:	2b08      	cmp	r3, #8
 8001a5c:	d003      	beq.n	8001a66 <HAL_RCC_GetSysClockFreq+0x36>
 8001a5e:	e027      	b.n	8001ab0 <HAL_RCC_GetSysClockFreq+0x80>
 8001a60:	4b19      	ldr	r3, [pc, #100]	; (8001ac8 <HAL_RCC_GetSysClockFreq+0x98>)
 8001a62:	613b      	str	r3, [r7, #16]
 8001a64:	e027      	b.n	8001ab6 <HAL_RCC_GetSysClockFreq+0x86>
 8001a66:	68fb      	ldr	r3, [r7, #12]
 8001a68:	0c9b      	lsrs	r3, r3, #18
 8001a6a:	f003 030f 	and.w	r3, r3, #15
 8001a6e:	4a17      	ldr	r2, [pc, #92]	; (8001acc <HAL_RCC_GetSysClockFreq+0x9c>)
 8001a70:	5cd3      	ldrb	r3, [r2, r3]
 8001a72:	607b      	str	r3, [r7, #4]
 8001a74:	68fb      	ldr	r3, [r7, #12]
 8001a76:	f403 3380 	and.w	r3, r3, #65536	; 0x10000
 8001a7a:	2b00      	cmp	r3, #0
 8001a7c:	d010      	beq.n	8001aa0 <HAL_RCC_GetSysClockFreq+0x70>
 8001a7e:	4b11      	ldr	r3, [pc, #68]	; (8001ac4 <HAL_RCC_GetSysClockFreq+0x94>)
 8001a80:	685b      	ldr	r3, [r3, #4]
 8001a82:	0c5b      	lsrs	r3, r3, #17
 8001a84:	f003 0301 	and.w	r3, r3, #1
 8001a88:	4a11      	ldr	r2, [pc, #68]	; (8001ad0 <HAL_RCC_GetSysClockFreq+0xa0>)
 8001a8a:	5cd3      	ldrb	r3, [r2, r3]
 8001a8c:	60bb      	str	r3, [r7, #8]
 8001a8e:	687b      	ldr	r3, [r7, #4]
 8001a90:	4a0d      	ldr	r2, [pc, #52]	; (8001ac8 <HAL_RCC_GetSysClockFreq+0x98>)
 8001a92:	fb03 f202 	mul.w	r2, r3, r2
 8001a96:	68bb      	ldr	r3, [r7, #8]
 8001a98:	fbb2 f3f3 	udiv	r3, r2, r3
 8001a9c:	617b      	str	r3, [r7, #20]
 8001a9e:	e004      	b.n	8001aaa <HAL_RCC_GetSysClockFreq+0x7a>
 8001aa0:	687b      	ldr	r3, [r7, #4]
 8001aa2:	4a0c      	ldr	r2, [pc, #48]	; (8001ad4 <HAL_RCC_GetSysClockFreq+0xa4>)
 8001aa4:	fb02 f303 	mul.w	r3, r2, r3
 8001aa8:	617b      	str	r3, [r7, #20]
 8001aaa:	697b      	ldr	r3, [r7, #20]
 8001aac:	613b      	str	r3, [r7, #16]
 8001aae:	e002      	b.n	8001ab6 <HAL_RCC_GetSysClockFreq+0x86>
 8001ab0:	4b05      	ldr	r3, [pc, #20]	; (8001ac8 <HAL_RCC_GetSysClockFreq+0x98>)
 8001ab2:	613b      	str	r3, [r7, #16]
 8001ab4:	bf00      	nop
 8001ab6:	693b      	ldr	r3, [r7, #16]
 8001ab8:	4618      	mov	r0, r3
 8001aba:	371c      	adds	r7, #28
 8001abc:	46bd      	mov	sp, r7
 8001abe:	bc80      	pop	{r7}
 8001ac0:	4770      	bx	lr
 8001ac2:	bf00      	nop
 8001ac4:	40021000 	.word	0x40021000
 8001ac8:	007a1200 	.word	0x007a1200
 8001acc:	08001c94 	.word	0x08001c94
 8001ad0:	08001ca4 	.word	0x08001ca4
 8001ad4:	003d0900 	.word	0x003d0900

08001ad8 <HAL_RCC_GetHCLKFreq>:
 8001ad8:	b480      	push	{r7}
 8001ada:	af00      	add	r7, sp, #0
 8001adc:	4b02      	ldr	r3, [pc, #8]	; (8001ae8 <HAL_RCC_GetHCLKFreq+0x10>)
 8001ade:	681b      	ldr	r3, [r3, #0]
 8001ae0:	4618      	mov	r0, r3
 8001ae2:	46bd      	mov	sp, r7
 8001ae4:	bc80      	pop	{r7}
 8001ae6:	4770      	bx	lr
 8001ae8:	2000001c 	.word	0x2000001c

08001aec <RCC_Delay>:
 8001aec:	b480      	push	{r7}
 8001aee:	b085      	sub	sp, #20
 8001af0:	af00      	add	r7, sp, #0
 8001af2:	6078      	str	r0, [r7, #4]
 8001af4:	4b0a      	ldr	r3, [pc, #40]	; (8001b20 <RCC_Delay+0x34>)
 8001af6:	681b      	ldr	r3, [r3, #0]
 8001af8:	4a0a      	ldr	r2, [pc, #40]	; (8001b24 <RCC_Delay+0x38>)
 8001afa:	fba2 2303 	umull	r2, r3, r2, r3
 8001afe:	0a5b      	lsrs	r3, r3, #9
 8001b00:	687a      	ldr	r2, [r7, #4]
 8001b02:	fb02 f303 	mul.w	r3, r2, r3
 8001b06:	60fb      	str	r3, [r7, #12]
 8001b08:	bf00      	nop
 8001b0a:	68fb      	ldr	r3, [r7, #12]
 8001b0c:	1e5a      	subs	r2, r3, #1
 8001b0e:	60fa      	str	r2, [r7, #12]
 8001b10:	2b00      	cmp	r3, #0
 8001b12:	d1f9      	bne.n	8001b08 <RCC_Delay+0x1c>
 8001b14:	bf00      	nop
 8001b16:	bf00      	nop
 8001b18:	3714      	adds	r7, #20
 8001b1a:	46bd      	mov	sp, r7
 8001b1c:	bc80      	pop	{r7}
 8001b1e:	4770      	bx	lr
 8001b20:	2000001c 	.word	0x2000001c
 8001b24:	10624dd3 	.word	0x10624dd3

08001b28 <__libc_init_array>:
 8001b28:	b570      	push	{r4, r5, r6, lr}
 8001b2a:	2600      	movs	r6, #0
 8001b2c:	4d0c      	ldr	r5, [pc, #48]	; (8001b60 <__libc_init_array+0x38>)
 8001b2e:	4c0d      	ldr	r4, [pc, #52]	; (8001b64 <__libc_init_array+0x3c>)
 8001b30:	1b64      	subs	r4, r4, r5
 8001b32:	10a4      	asrs	r4, r4, #2
 8001b34:	42a6      	cmp	r6, r4
 8001b36:	d109      	bne.n	8001b4c <__libc_init_array+0x24>
 8001b38:	f000 f87e 	bl	8001c38 <_init>
 8001b3c:	2600      	movs	r6, #0
 8001b3e:	4d0a      	ldr	r5, [pc, #40]	; (8001b68 <__libc_init_array+0x40>)
 8001b40:	4c0a      	ldr	r4, [pc, #40]	; (8001b6c <__libc_init_array+0x44>)
 8001b42:	1b64      	subs	r4, r4, r5
 8001b44:	10a4      	asrs	r4, r4, #2
 8001b46:	42a6      	cmp	r6, r4
 8001b48:	d105      	bne.n	8001b56 <__libc_init_array+0x2e>
 8001b4a:	bd70      	pop	{r4, r5, r6, pc}
 8001b4c:	f855 3b04 	ldr.w	r3, [r5], #4
 8001b50:	4798      	blx	r3
 8001b52:	3601      	adds	r6, #1
 8001b54:	e7ee      	b.n	8001b34 <__libc_init_array+0xc>
 8001b56:	f855 3b04 	ldr.w	r3, [r5], #4
 8001b5a:	4798      	blx	r3
 8001b5c:	3601      	adds	r6, #1
 8001b5e:	e7f2      	b.n	8001b46 <__libc_init_array+0x1e>
 8001b60:	08001ccc 	.word	0x08001ccc
 8001b64:	08001ccc 	.word	0x08001ccc
 8001b68:	08001ccc 	.word	0x08001ccc
 8001b6c:	08001cd0 	.word	0x08001cd0

08001b70 <__itoa>:
 8001b70:	1e93      	subs	r3, r2, #2
 8001b72:	2b22      	cmp	r3, #34	; 0x22
 8001b74:	b510      	push	{r4, lr}
 8001b76:	460c      	mov	r4, r1
 8001b78:	d904      	bls.n	8001b84 <__itoa+0x14>
 8001b7a:	2300      	movs	r3, #0
 8001b7c:	461c      	mov	r4, r3
 8001b7e:	700b      	strb	r3, [r1, #0]
 8001b80:	4620      	mov	r0, r4
 8001b82:	bd10      	pop	{r4, pc}
 8001b84:	2a0a      	cmp	r2, #10
 8001b86:	d109      	bne.n	8001b9c <__itoa+0x2c>
 8001b88:	2800      	cmp	r0, #0
 8001b8a:	da07      	bge.n	8001b9c <__itoa+0x2c>
 8001b8c:	232d      	movs	r3, #45	; 0x2d
 8001b8e:	700b      	strb	r3, [r1, #0]
 8001b90:	2101      	movs	r1, #1
 8001b92:	4240      	negs	r0, r0
 8001b94:	4421      	add	r1, r4
 8001b96:	f000 f80d 	bl	8001bb4 <__utoa>
 8001b9a:	e7f1      	b.n	8001b80 <__itoa+0x10>
 8001b9c:	2100      	movs	r1, #0
 8001b9e:	e7f9      	b.n	8001b94 <__itoa+0x24>

08001ba0 <itoa>:
 8001ba0:	f7ff bfe6 	b.w	8001b70 <__itoa>

08001ba4 <memset>:
 8001ba4:	4603      	mov	r3, r0
 8001ba6:	4402      	add	r2, r0
 8001ba8:	4293      	cmp	r3, r2
 8001baa:	d100      	bne.n	8001bae <memset+0xa>
 8001bac:	4770      	bx	lr
 8001bae:	f803 1b01 	strb.w	r1, [r3], #1
 8001bb2:	e7f9      	b.n	8001ba8 <memset+0x4>

08001bb4 <__utoa>:
 8001bb4:	b5f0      	push	{r4, r5, r6, r7, lr}
 8001bb6:	b08b      	sub	sp, #44	; 0x2c
 8001bb8:	4605      	mov	r5, r0
 8001bba:	460b      	mov	r3, r1
 8001bbc:	466e      	mov	r6, sp
 8001bbe:	4c1d      	ldr	r4, [pc, #116]	; (8001c34 <__utoa+0x80>)
 8001bc0:	f104 0c20 	add.w	ip, r4, #32
 8001bc4:	4637      	mov	r7, r6
 8001bc6:	6820      	ldr	r0, [r4, #0]
 8001bc8:	6861      	ldr	r1, [r4, #4]
 8001bca:	3408      	adds	r4, #8
 8001bcc:	c703      	stmia	r7!, {r0, r1}
 8001bce:	4564      	cmp	r4, ip
 8001bd0:	463e      	mov	r6, r7
 8001bd2:	d1f7      	bne.n	8001bc4 <__utoa+0x10>
 8001bd4:	7921      	ldrb	r1, [r4, #4]
 8001bd6:	6820      	ldr	r0, [r4, #0]
 8001bd8:	7139      	strb	r1, [r7, #4]
 8001bda:	1e91      	subs	r1, r2, #2
 8001bdc:	2922      	cmp	r1, #34	; 0x22
 8001bde:	6038      	str	r0, [r7, #0]
 8001be0:	f04f 0100 	mov.w	r1, #0
 8001be4:	d904      	bls.n	8001bf0 <__utoa+0x3c>
 8001be6:	7019      	strb	r1, [r3, #0]
 8001be8:	460b      	mov	r3, r1
 8001bea:	4618      	mov	r0, r3
 8001bec:	b00b      	add	sp, #44	; 0x2c
 8001bee:	bdf0      	pop	{r4, r5, r6, r7, pc}
 8001bf0:	1e58      	subs	r0, r3, #1
 8001bf2:	4684      	mov	ip, r0
 8001bf4:	fbb5 f7f2 	udiv	r7, r5, r2
 8001bf8:	fb02 5617 	mls	r6, r2, r7, r5
 8001bfc:	3628      	adds	r6, #40	; 0x28
 8001bfe:	446e      	add	r6, sp
 8001c00:	f816 6c28 	ldrb.w	r6, [r6, #-40]
 8001c04:	460c      	mov	r4, r1
 8001c06:	f80c 6f01 	strb.w	r6, [ip, #1]!
 8001c0a:	462e      	mov	r6, r5
 8001c0c:	42b2      	cmp	r2, r6
 8001c0e:	463d      	mov	r5, r7
 8001c10:	f101 0101 	add.w	r1, r1, #1
 8001c14:	d9ee      	bls.n	8001bf4 <__utoa+0x40>
 8001c16:	2200      	movs	r2, #0
 8001c18:	545a      	strb	r2, [r3, r1]
 8001c1a:	1919      	adds	r1, r3, r4
 8001c1c:	1aa5      	subs	r5, r4, r2
 8001c1e:	42aa      	cmp	r2, r5
 8001c20:	dae3      	bge.n	8001bea <__utoa+0x36>
 8001c22:	f810 5f01 	ldrb.w	r5, [r0, #1]!
 8001c26:	780e      	ldrb	r6, [r1, #0]
 8001c28:	3201      	adds	r2, #1
 8001c2a:	7006      	strb	r6, [r0, #0]
 8001c2c:	f801 5901 	strb.w	r5, [r1], #-1
 8001c30:	e7f4      	b.n	8001c1c <__utoa+0x68>
 8001c32:	bf00      	nop
 8001c34:	08001ca6 	.word	0x08001ca6

08001c38 <_init>:
 8001c38:	b5f8      	push	{r3, r4, r5, r6, r7, lr}
 8001c3a:	bf00      	nop
 8001c3c:	bcf8      	pop	{r3, r4, r5, r6, r7}
 8001c3e:	bc08      	pop	{r3}
 8001c40:	469e      	mov	lr, r3
 8001c42:	4770      	bx	lr

08001c44 <_fini>:
 8001c44:	b5f8      	push	{r3, r4, r5, r6, r7, lr}
 8001c46:	bf00      	nop
 8001c48:	bcf8      	pop	{r3, r4, r5, r6, r7}
 8001c4a:	bc08      	pop	{r3}
 8001c4c:	469e      	mov	lr, r3
 8001c4e:	4770      	bx	lr
